
httpd：     文件格式 elf64-littleaarch64


Disassembly of section .init:

0000000000039ef0 <_init>:
   39ef0:	a9bf7bfd 	stp	x29, x30, [sp, #-16]!
   39ef4:	910003fd 	mov	x29, sp
   39ef8:	940010f1 	bl	3e2bc <call_weak_fn>
   39efc:	a8c17bfd 	ldp	x29, x30, [sp], #16
   39f00:	d65f03c0 	ret

Disassembly of section .plt:

0000000000039f10 <.plt>:
   39f10:	a9bf7bf0 	stp	x16, x30, [sp, #-16]!
   39f14:	90000450 	adrp	x16, c1000 <_DYNAMIC+0x188>
   39f18:	f9406e11 	ldr	x17, [x16, #216]
   39f1c:	91036210 	add	x16, x16, #0xd8
   39f20:	d61f0220 	br	x17
   39f24:	d503201f 	nop
   39f28:	d503201f 	nop
   39f2c:	d503201f 	nop

0000000000039f30 <apr_file_open_stdout@plt>:
   39f30:	90000450 	adrp	x16, c1000 <_DYNAMIC+0x188>
   39f34:	f9407211 	ldr	x17, [x16, #224]
   39f38:	91038210 	add	x16, x16, #0xe0
   39f3c:	d61f0220 	br	x17

0000000000039f40 <apr_dso_unload@plt>:
   39f40:	90000450 	adrp	x16, c1000 <_DYNAMIC+0x188>
   39f44:	f9407611 	ldr	x17, [x16, #232]
   39f48:	9103a210 	add	x16, x16, #0xe8
   39f4c:	d61f0220 	br	x17

0000000000039f50 <apr_procattr_cmdtype_set@plt>:
   39f50:	90000450 	adrp	x16, c1000 <_DYNAMIC+0x188>
   39f54:	f9407a11 	ldr	x17, [x16, #240]
   39f58:	9103c210 	add	x16, x16, #0xf0
   39f5c:	d61f0220 	br	x17

0000000000039f60 <apr_brigade_putstrs@plt>:
   39f60:	90000450 	adrp	x16, c1000 <_DYNAMIC+0x188>
   39f64:	f9407e11 	ldr	x17, [x16, #248]
   39f68:	9103e210 	add	x16, x16, #0xf8
   39f6c:	d61f0220 	br	x17

0000000000039f70 <apr_getopt_init@plt>:
   39f70:	90000450 	adrp	x16, c1000 <_DYNAMIC+0x188>
   39f74:	f9408211 	ldr	x17, [x16, #256]
   39f78:	91040210 	add	x16, x16, #0x100
   39f7c:	d61f0220 	br	x17

0000000000039f80 <apr_proc_mutex_unlock@plt>:
   39f80:	90000450 	adrp	x16, c1000 <_DYNAMIC+0x188>
   39f84:	f9408611 	ldr	x17, [x16, #264]
   39f88:	91042210 	add	x16, x16, #0x108
   39f8c:	d61f0220 	br	x17

0000000000039f90 <memcpy@plt>:
   39f90:	90000450 	adrp	x16, c1000 <_DYNAMIC+0x188>
   39f94:	f9408a11 	ldr	x17, [x16, #272]
   39f98:	91044210 	add	x16, x16, #0x110
   39f9c:	d61f0220 	br	x17

0000000000039fa0 <apr_pencode_base32@plt>:
   39fa0:	90000450 	adrp	x16, c1000 <_DYNAMIC+0x188>
   39fa4:	f9408e11 	ldr	x17, [x16, #280]
   39fa8:	91046210 	add	x16, x16, #0x118
   39fac:	d61f0220 	br	x17

0000000000039fb0 <apr_atomic_sub64@plt>:
   39fb0:	90000450 	adrp	x16, c1000 <_DYNAMIC+0x188>
   39fb4:	f9409211 	ldr	x17, [x16, #288]
   39fb8:	91048210 	add	x16, x16, #0x120
   39fbc:	d61f0220 	br	x17

0000000000039fc0 <apr_dbd_transaction_end@plt>:
   39fc0:	90000450 	adrp	x16, c1000 <_DYNAMIC+0x188>
   39fc4:	f9409611 	ldr	x17, [x16, #296]
   39fc8:	9104a210 	add	x16, x16, #0x128
   39fcc:	d61f0220 	br	x17

0000000000039fd0 <apr_escape_ldap@plt>:
   39fd0:	90000450 	adrp	x16, c1000 <_DYNAMIC+0x188>
   39fd4:	f9409a11 	ldr	x17, [x16, #304]
   39fd8:	9104c210 	add	x16, x16, #0x130
   39fdc:	d61f0220 	br	x17

0000000000039fe0 <apr_md4_update@plt>:
   39fe0:	90000450 	adrp	x16, c1000 <_DYNAMIC+0x188>
   39fe4:	f9409e11 	ldr	x17, [x16, #312]
   39fe8:	9104e210 	add	x16, x16, #0x138
   39fec:	d61f0220 	br	x17

0000000000039ff0 <memmove@plt>:
   39ff0:	90000450 	adrp	x16, c1000 <_DYNAMIC+0x188>
   39ff4:	f940a211 	ldr	x17, [x16, #320]
   39ff8:	91050210 	add	x16, x16, #0x140
   39ffc:	d61f0220 	br	x17

000000000003a000 <pthread_sigmask@plt>:
   3a000:	f0000430 	adrp	x16, c1000 <_DYNAMIC+0x188>
   3a004:	f940a611 	ldr	x17, [x16, #328]
   3a008:	91052210 	add	x16, x16, #0x148
   3a00c:	d61f0220 	br	x17

000000000003a010 <apr_mcast_interface@plt>:
   3a010:	f0000430 	adrp	x16, c1000 <_DYNAMIC+0x188>
   3a014:	f940aa11 	ldr	x17, [x16, #336]
   3a018:	91054210 	add	x16, x16, #0x150
   3a01c:	d61f0220 	br	x17

000000000003a020 <apr_proc_mutex_cleanup@plt>:
   3a020:	f0000430 	adrp	x16, c1000 <_DYNAMIC+0x188>
   3a024:	f940ae11 	ldr	x17, [x16, #344]
   3a028:	91056210 	add	x16, x16, #0x158
   3a02c:	d61f0220 	br	x17

000000000003a030 <apr_table_add@plt>:
   3a030:	f0000430 	adrp	x16, c1000 <_DYNAMIC+0x188>
   3a034:	f940b211 	ldr	x17, [x16, #352]
   3a038:	91058210 	add	x16, x16, #0x160
   3a03c:	d61f0220 	br	x17

000000000003a040 <apr_hash_make_custom@plt>:
   3a040:	f0000430 	adrp	x16, c1000 <_DYNAMIC+0x188>
   3a044:	f940b611 	ldr	x17, [x16, #360]
   3a048:	9105a210 	add	x16, x16, #0x168
   3a04c:	d61f0220 	br	x17

000000000003a050 <apr_skiplist_replace_compare@plt>:
   3a050:	f0000430 	adrp	x16, c1000 <_DYNAMIC+0x188>
   3a054:	f940ba11 	ldr	x17, [x16, #368]
   3a058:	9105c210 	add	x16, x16, #0x170
   3a05c:	d61f0220 	br	x17

000000000003a060 <apr_hash_first@plt>:
   3a060:	f0000430 	adrp	x16, c1000 <_DYNAMIC+0x188>
   3a064:	f940be11 	ldr	x17, [x16, #376]
   3a068:	9105e210 	add	x16, x16, #0x178
   3a06c:	d61f0220 	br	x17

000000000003a070 <apr_os_proc_mutex_put_ex@plt>:
   3a070:	f0000430 	adrp	x16, c1000 <_DYNAMIC+0x188>
   3a074:	f940c211 	ldr	x17, [x16, #384]
   3a078:	91060210 	add	x16, x16, #0x180
   3a07c:	d61f0220 	br	x17

000000000003a080 <apr_bucket_pool_create@plt>:
   3a080:	f0000430 	adrp	x16, c1000 <_DYNAMIC+0x188>
   3a084:	f940c611 	ldr	x17, [x16, #392]
   3a088:	91062210 	add	x16, x16, #0x188
   3a08c:	d61f0220 	br	x17

000000000003a090 <apr_time_exp_get@plt>:
   3a090:	f0000430 	adrp	x16, c1000 <_DYNAMIC+0x188>
   3a094:	f940ca11 	ldr	x17, [x16, #400]
   3a098:	91064210 	add	x16, x16, #0x190
   3a09c:	d61f0220 	br	x17

000000000003a0a0 <apr_time_ansi_put@plt>:
   3a0a0:	f0000430 	adrp	x16, c1000 <_DYNAMIC+0x188>
   3a0a4:	f940ce11 	ldr	x17, [x16, #408]
   3a0a8:	91066210 	add	x16, x16, #0x198
   3a0ac:	d61f0220 	br	x17

000000000003a0b0 <apr_xml_parser_done@plt>:
   3a0b0:	f0000430 	adrp	x16, c1000 <_DYNAMIC+0x188>
   3a0b4:	f940d211 	ldr	x17, [x16, #416]
   3a0b8:	91068210 	add	x16, x16, #0x1a0
   3a0bc:	d61f0220 	br	x17

000000000003a0c0 <apr_bucket_transient_make@plt>:
   3a0c0:	f0000430 	adrp	x16, c1000 <_DYNAMIC+0x188>
   3a0c4:	f940d611 	ldr	x17, [x16, #424]
   3a0c8:	9106a210 	add	x16, x16, #0x1a8
   3a0cc:	d61f0220 	br	x17

000000000003a0d0 <apr_array_make@plt>:
   3a0d0:	f0000430 	adrp	x16, c1000 <_DYNAMIC+0x188>
   3a0d4:	f940da11 	ldr	x17, [x16, #432]
   3a0d8:	9106c210 	add	x16, x16, #0x1b0
   3a0dc:	d61f0220 	br	x17

000000000003a0e0 <apr_time_exp_gmt@plt>:
   3a0e0:	f0000430 	adrp	x16, c1000 <_DYNAMIC+0x188>
   3a0e4:	f940de11 	ldr	x17, [x16, #440]
   3a0e8:	9106e210 	add	x16, x16, #0x1b8
   3a0ec:	d61f0220 	br	x17

000000000003a0f0 <apr_socket_type_get@plt>:
   3a0f0:	f0000430 	adrp	x16, c1000 <_DYNAMIC+0x188>
   3a0f4:	f940e211 	ldr	x17, [x16, #448]
   3a0f8:	91070210 	add	x16, x16, #0x1c0
   3a0fc:	d61f0220 	br	x17

000000000003a100 <apr_socket_protocol_get@plt>:
   3a100:	f0000430 	adrp	x16, c1000 <_DYNAMIC+0x188>
   3a104:	f940e611 	ldr	x17, [x16, #456]
   3a108:	91072210 	add	x16, x16, #0x1c8
   3a10c:	d61f0220 	br	x17

000000000003a110 <apr_dso_error@plt>:
   3a110:	f0000430 	adrp	x16, c1000 <_DYNAMIC+0x188>
   3a114:	f940ea11 	ldr	x17, [x16, #464]
   3a118:	91074210 	add	x16, x16, #0x1d0
   3a11c:	d61f0220 	br	x17

000000000003a120 <strlen@plt>:
   3a120:	f0000430 	adrp	x16, c1000 <_DYNAMIC+0x188>
   3a124:	f940ee11 	ldr	x17, [x16, #472]
   3a128:	91076210 	add	x16, x16, #0x1d8
   3a12c:	d61f0220 	br	x17

000000000003a130 <apr_punescape_hex@plt>:
   3a130:	f0000430 	adrp	x16, c1000 <_DYNAMIC+0x188>
   3a134:	f940f211 	ldr	x17, [x16, #480]
   3a138:	91078210 	add	x16, x16, #0x1e0
   3a13c:	d61f0220 	br	x17

000000000003a140 <apr_dbm_open@plt>:
   3a140:	f0000430 	adrp	x16, c1000 <_DYNAMIC+0x188>
   3a144:	f940f611 	ldr	x17, [x16, #488]
   3a148:	9107a210 	add	x16, x16, #0x1e8
   3a14c:	d61f0220 	br	x17

000000000003a150 <apr_time_clock_hires@plt>:
   3a150:	f0000430 	adrp	x16, c1000 <_DYNAMIC+0x188>
   3a154:	f940fa11 	ldr	x17, [x16, #496]
   3a158:	9107c210 	add	x16, x16, #0x1f0
   3a15c:	d61f0220 	br	x17

000000000003a160 <apr_md5_init@plt>:
   3a160:	f0000430 	adrp	x16, c1000 <_DYNAMIC+0x188>
   3a164:	f940fe11 	ldr	x17, [x16, #504]
   3a168:	9107e210 	add	x16, x16, #0x1f8
   3a16c:	d61f0220 	br	x17

000000000003a170 <apr_skiplist_insert@plt>:
   3a170:	f0000430 	adrp	x16, c1000 <_DYNAMIC+0x188>
   3a174:	f9410211 	ldr	x17, [x16, #512]
   3a178:	91080210 	add	x16, x16, #0x200
   3a17c:	d61f0220 	br	x17

000000000003a180 <apr_allocator_mutex_get@plt>:
   3a180:	f0000430 	adrp	x16, c1000 <_DYNAMIC+0x188>
   3a184:	f9410611 	ldr	x17, [x16, #520]
   3a188:	91082210 	add	x16, x16, #0x208
   3a18c:	d61f0220 	br	x17

000000000003a190 <apr_reslist_timeout_set@plt>:
   3a190:	f0000430 	adrp	x16, c1000 <_DYNAMIC+0x188>
   3a194:	f9410a11 	ldr	x17, [x16, #528]
   3a198:	91084210 	add	x16, x16, #0x210
   3a19c:	d61f0220 	br	x17

000000000003a1a0 <apr_brigade_pflatten@plt>:
   3a1a0:	f0000430 	adrp	x16, c1000 <_DYNAMIC+0x188>
   3a1a4:	f9410e11 	ldr	x17, [x16, #536]
   3a1a8:	91086210 	add	x16, x16, #0x218
   3a1ac:	d61f0220 	br	x17

000000000003a1b0 <exit@plt>:
   3a1b0:	f0000430 	adrp	x16, c1000 <_DYNAMIC+0x188>
   3a1b4:	f9411211 	ldr	x17, [x16, #544]
   3a1b8:	91088210 	add	x16, x16, #0x220
   3a1bc:	d61f0220 	br	x17

000000000003a1c0 <apr_file_pool_get@plt>:
   3a1c0:	f0000430 	adrp	x16, c1000 <_DYNAMIC+0x188>
   3a1c4:	f9411611 	ldr	x17, [x16, #552]
   3a1c8:	9108a210 	add	x16, x16, #0x228
   3a1cc:	d61f0220 	br	x17

000000000003a1d0 <apr_punescape_url@plt>:
   3a1d0:	f0000430 	adrp	x16, c1000 <_DYNAMIC+0x188>
   3a1d4:	f9411a11 	ldr	x17, [x16, #560]
   3a1d8:	9108c210 	add	x16, x16, #0x230
   3a1dc:	d61f0220 	br	x17

000000000003a1e0 <apr_file_data_set@plt>:
   3a1e0:	f0000430 	adrp	x16, c1000 <_DYNAMIC+0x188>
   3a1e4:	f9411e11 	ldr	x17, [x16, #568]
   3a1e8:	9108e210 	add	x16, x16, #0x238
   3a1ec:	d61f0220 	br	x17

000000000003a1f0 <apr_md5_update@plt>:
   3a1f0:	f0000430 	adrp	x16, c1000 <_DYNAMIC+0x188>
   3a1f4:	f9412211 	ldr	x17, [x16, #576]
   3a1f8:	91090210 	add	x16, x16, #0x240
   3a1fc:	d61f0220 	br	x17

000000000003a200 <apr_procattr_perms_set_register@plt>:
   3a200:	f0000430 	adrp	x16, c1000 <_DYNAMIC+0x188>
   3a204:	f9412611 	ldr	x17, [x16, #584]
   3a208:	91092210 	add	x16, x16, #0x248
   3a20c:	d61f0220 	br	x17

000000000003a210 <apr_base64_encode_binary@plt>:
   3a210:	f0000430 	adrp	x16, c1000 <_DYNAMIC+0x188>
   3a214:	f9412a11 	ldr	x17, [x16, #592]
   3a218:	91094210 	add	x16, x16, #0x250
   3a21c:	d61f0220 	br	x17

000000000003a220 <apr_encode_base16_binary@plt>:
   3a220:	f0000430 	adrp	x16, c1000 <_DYNAMIC+0x188>
   3a224:	f9412e11 	ldr	x17, [x16, #600]
   3a228:	91096210 	add	x16, x16, #0x258
   3a22c:	d61f0220 	br	x17

000000000003a230 <apr_pmemdup@plt>:
   3a230:	f0000430 	adrp	x16, c1000 <_DYNAMIC+0x188>
   3a234:	f9413211 	ldr	x17, [x16, #608]
   3a238:	91098210 	add	x16, x16, #0x260
   3a23c:	d61f0220 	br	x17

000000000003a240 <apr_atomic_inc32@plt>:
   3a240:	f0000430 	adrp	x16, c1000 <_DYNAMIC+0x188>
   3a244:	f9413611 	ldr	x17, [x16, #616]
   3a248:	9109a210 	add	x16, x16, #0x268
   3a24c:	d61f0220 	br	x17

000000000003a250 <apr_siphash@plt>:
   3a250:	f0000430 	adrp	x16, c1000 <_DYNAMIC+0x188>
   3a254:	f9413a11 	ldr	x17, [x16, #624]
   3a258:	9109c210 	add	x16, x16, #0x270
   3a25c:	d61f0220 	br	x17

000000000003a260 <apr_hash_this_key_len@plt>:
   3a260:	f0000430 	adrp	x16, c1000 <_DYNAMIC+0x188>
   3a264:	f9413e11 	ldr	x17, [x16, #632]
   3a268:	9109e210 	add	x16, x16, #0x278
   3a26c:	d61f0220 	br	x17

000000000003a270 <apr_pool_clear_debug@plt>:
   3a270:	f0000430 	adrp	x16, c1000 <_DYNAMIC+0x188>
   3a274:	f9414211 	ldr	x17, [x16, #640]
   3a278:	910a0210 	add	x16, x16, #0x280
   3a27c:	d61f0220 	br	x17

000000000003a280 <apr_bucket_alloc_aligned_floor@plt>:
   3a280:	f0000430 	adrp	x16, c1000 <_DYNAMIC+0x188>
   3a284:	f9414611 	ldr	x17, [x16, #648]
   3a288:	910a2210 	add	x16, x16, #0x288
   3a28c:	d61f0220 	br	x17

000000000003a290 <apr_terminate@plt>:
   3a290:	f0000430 	adrp	x16, c1000 <_DYNAMIC+0x188>
   3a294:	f9414a11 	ldr	x17, [x16, #656]
   3a298:	910a4210 	add	x16, x16, #0x290
   3a29c:	d61f0220 	br	x17

000000000003a2a0 <apr_table_addn@plt>:
   3a2a0:	f0000430 	adrp	x16, c1000 <_DYNAMIC+0x188>
   3a2a4:	f9414e11 	ldr	x17, [x16, #664]
   3a2a8:	910a6210 	add	x16, x16, #0x298
   3a2ac:	d61f0220 	br	x17

000000000003a2b0 <apr_proc_mutex_child_init@plt>:
   3a2b0:	f0000430 	adrp	x16, c1000 <_DYNAMIC+0x188>
   3a2b4:	f9415211 	ldr	x17, [x16, #672]
   3a2b8:	910a8210 	add	x16, x16, #0x2a0
   3a2bc:	d61f0220 	br	x17

000000000003a2c0 <apr_os_exp_time_put@plt>:
   3a2c0:	f0000430 	adrp	x16, c1000 <_DYNAMIC+0x188>
   3a2c4:	f9415611 	ldr	x17, [x16, #680]
   3a2c8:	910aa210 	add	x16, x16, #0x2a8
   3a2cc:	d61f0220 	br	x17

000000000003a2d0 <apr_hash_this_val@plt>:
   3a2d0:	f0000430 	adrp	x16, c1000 <_DYNAMIC+0x188>
   3a2d4:	f9415a11 	ldr	x17, [x16, #688]
   3a2d8:	910ac210 	add	x16, x16, #0x2b0
   3a2dc:	d61f0220 	br	x17

000000000003a2e0 <apr_thread_data_get@plt>:
   3a2e0:	f0000430 	adrp	x16, c1000 <_DYNAMIC+0x188>
   3a2e4:	f9415e11 	ldr	x17, [x16, #696]
   3a2e8:	910ae210 	add	x16, x16, #0x2b8
   3a2ec:	d61f0220 	br	x17

000000000003a2f0 <apr_array_clear@plt>:
   3a2f0:	f0000430 	adrp	x16, c1000 <_DYNAMIC+0x188>
   3a2f4:	f9416211 	ldr	x17, [x16, #704]
   3a2f8:	910b0210 	add	x16, x16, #0x2c0
   3a2fc:	d61f0220 	br	x17

000000000003a300 <apr_file_read_full@plt>:
   3a300:	f0000430 	adrp	x16, c1000 <_DYNAMIC+0x188>
   3a304:	f9416611 	ldr	x17, [x16, #712]
   3a308:	910b2210 	add	x16, x16, #0x2c8
   3a30c:	d61f0220 	br	x17

000000000003a310 <apr_bucket_alloc_create@plt>:
   3a310:	f0000430 	adrp	x16, c1000 <_DYNAMIC+0x188>
   3a314:	f9416a11 	ldr	x17, [x16, #720]
   3a318:	910b4210 	add	x16, x16, #0x2d0
   3a31c:	d61f0220 	br	x17

000000000003a320 <apr_redis_ping@plt>:
   3a320:	f0000430 	adrp	x16, c1000 <_DYNAMIC+0x188>
   3a324:	f9416e11 	ldr	x17, [x16, #728]
   3a328:	910b6210 	add	x16, x16, #0x2d8
   3a32c:	d61f0220 	br	x17

000000000003a330 <apr_escape_path_segment@plt>:
   3a330:	f0000430 	adrp	x16, c1000 <_DYNAMIC+0x188>
   3a334:	f9417211 	ldr	x17, [x16, #736]
   3a338:	910b8210 	add	x16, x16, #0x2e0
   3a33c:	d61f0220 	br	x17

000000000003a340 <apr_strtoi64@plt>:
   3a340:	f0000430 	adrp	x16, c1000 <_DYNAMIC+0x188>
   3a344:	f9417611 	ldr	x17, [x16, #744]
   3a348:	910ba210 	add	x16, x16, #0x2e8
   3a34c:	d61f0220 	br	x17

000000000003a350 <apr_unescape_url@plt>:
   3a350:	f0000430 	adrp	x16, c1000 <_DYNAMIC+0x188>
   3a354:	f9417a11 	ldr	x17, [x16, #752]
   3a358:	910bc210 	add	x16, x16, #0x2f0
   3a35c:	d61f0220 	br	x17

000000000003a360 <apr_punescape_entity@plt>:
   3a360:	f0000430 	adrp	x16, c1000 <_DYNAMIC+0x188>
   3a364:	f9417e11 	ldr	x17, [x16, #760]
   3a368:	910be210 	add	x16, x16, #0x2f8
   3a36c:	d61f0220 	br	x17

000000000003a370 <apr_ctime@plt>:
   3a370:	f0000430 	adrp	x16, c1000 <_DYNAMIC+0x188>
   3a374:	f9418211 	ldr	x17, [x16, #768]
   3a378:	910c0210 	add	x16, x16, #0x300
   3a37c:	d61f0220 	br	x17

000000000003a380 <apr_cstr_split_append@plt>:
   3a380:	f0000430 	adrp	x16, c1000 <_DYNAMIC+0x188>
   3a384:	f9418611 	ldr	x17, [x16, #776]
   3a388:	910c2210 	add	x16, x16, #0x308
   3a38c:	d61f0220 	br	x17

000000000003a390 <apr_memcache_disable_server@plt>:
   3a390:	f0000430 	adrp	x16, c1000 <_DYNAMIC+0x188>
   3a394:	f9418a11 	ldr	x17, [x16, #784]
   3a398:	910c4210 	add	x16, x16, #0x310
   3a39c:	d61f0220 	br	x17

000000000003a3a0 <apr_dbd_prepare@plt>:
   3a3a0:	f0000430 	adrp	x16, c1000 <_DYNAMIC+0x188>
   3a3a4:	f9418e11 	ldr	x17, [x16, #792]
   3a3a8:	910c6210 	add	x16, x16, #0x318
   3a3ac:	d61f0220 	br	x17

000000000003a3b0 <apr_reslist_invalidate@plt>:
   3a3b0:	f0000430 	adrp	x16, c1000 <_DYNAMIC+0x188>
   3a3b4:	f9419211 	ldr	x17, [x16, #800]
   3a3b8:	910c8210 	add	x16, x16, #0x320
   3a3bc:	d61f0220 	br	x17

000000000003a3c0 <apr_pstrmemdup@plt>:
   3a3c0:	f0000430 	adrp	x16, c1000 <_DYNAMIC+0x188>
   3a3c4:	f9419611 	ldr	x17, [x16, #808]
   3a3c8:	910ca210 	add	x16, x16, #0x328
   3a3cc:	d61f0220 	br	x17

000000000003a3d0 <apr_os_default_encoding@plt>:
   3a3d0:	f0000430 	adrp	x16, c1000 <_DYNAMIC+0x188>
   3a3d4:	f9419a11 	ldr	x17, [x16, #816]
   3a3d8:	910cc210 	add	x16, x16, #0x330
   3a3dc:	d61f0220 	br	x17

000000000003a3e0 <apr_dbd_error@plt>:
   3a3e0:	f0000430 	adrp	x16, c1000 <_DYNAMIC+0x188>
   3a3e4:	f9419e11 	ldr	x17, [x16, #824]
   3a3e8:	910ce210 	add	x16, x16, #0x338
   3a3ec:	d61f0220 	br	x17

000000000003a3f0 <apr_reslist_create@plt>:
   3a3f0:	f0000430 	adrp	x16, c1000 <_DYNAMIC+0x188>
   3a3f4:	f941a211 	ldr	x17, [x16, #832]
   3a3f8:	910d0210 	add	x16, x16, #0x340
   3a3fc:	d61f0220 	br	x17

000000000003a400 <apr_atomic_xchg64@plt>:
   3a400:	f0000430 	adrp	x16, c1000 <_DYNAMIC+0x188>
   3a404:	f941a611 	ldr	x17, [x16, #840]
   3a408:	910d2210 	add	x16, x16, #0x348
   3a40c:	d61f0220 	br	x17

000000000003a410 <apr_time_now@plt>:
   3a410:	f0000430 	adrp	x16, c1000 <_DYNAMIC+0x188>
   3a414:	f941aa11 	ldr	x17, [x16, #848]
   3a418:	910d4210 	add	x16, x16, #0x350
   3a41c:	d61f0220 	br	x17

000000000003a420 <apr_file_link@plt>:
   3a420:	f0000430 	adrp	x16, c1000 <_DYNAMIC+0x188>
   3a424:	f941ae11 	ldr	x17, [x16, #856]
   3a428:	910d6210 	add	x16, x16, #0x358
   3a42c:	d61f0220 	br	x17

000000000003a430 <apr_skiplist_add_index@plt>:
   3a430:	f0000430 	adrp	x16, c1000 <_DYNAMIC+0x188>
   3a434:	f941b211 	ldr	x17, [x16, #864]
   3a438:	910d8210 	add	x16, x16, #0x360
   3a43c:	d61f0220 	br	x17

000000000003a440 <apr_file_getc@plt>:
   3a440:	f0000430 	adrp	x16, c1000 <_DYNAMIC+0x188>
   3a444:	f941b611 	ldr	x17, [x16, #872]
   3a448:	910da210 	add	x16, x16, #0x368
   3a44c:	d61f0220 	br	x17

000000000003a450 <getpgid@plt>:
   3a450:	f0000430 	adrp	x16, c1000 <_DYNAMIC+0x188>
   3a454:	f941ba11 	ldr	x17, [x16, #880]
   3a458:	910dc210 	add	x16, x16, #0x370
   3a45c:	d61f0220 	br	x17

000000000003a460 <strtod@plt>:
   3a460:	f0000430 	adrp	x16, c1000 <_DYNAMIC+0x188>
   3a464:	f941be11 	ldr	x17, [x16, #888]
   3a468:	910de210 	add	x16, x16, #0x378
   3a46c:	d61f0220 	br	x17

000000000003a470 <apr_global_mutex_lock@plt>:
   3a470:	f0000430 	adrp	x16, c1000 <_DYNAMIC+0x188>
   3a474:	f941c211 	ldr	x17, [x16, #896]
   3a478:	910e0210 	add	x16, x16, #0x380
   3a47c:	d61f0220 	br	x17

000000000003a480 <geteuid@plt>:
   3a480:	f0000430 	adrp	x16, c1000 <_DYNAMIC+0x188>
   3a484:	f941c611 	ldr	x17, [x16, #904]
   3a488:	910e2210 	add	x16, x16, #0x388
   3a48c:	d61f0220 	br	x17

000000000003a490 <apr_file_mktemp@plt>:
   3a490:	f0000430 	adrp	x16, c1000 <_DYNAMIC+0x188>
   3a494:	f941ca11 	ldr	x17, [x16, #912]
   3a498:	910e4210 	add	x16, x16, #0x390
   3a49c:	d61f0220 	br	x17

000000000003a4a0 <apr_procattr_dir_set@plt>:
   3a4a0:	f0000430 	adrp	x16, c1000 <_DYNAMIC+0x188>
   3a4a4:	f941ce11 	ldr	x17, [x16, #920]
   3a4a8:	910e6210 	add	x16, x16, #0x398
   3a4ac:	d61f0220 	br	x17

000000000003a4b0 <apu_version_string@plt>:
   3a4b0:	f0000430 	adrp	x16, c1000 <_DYNAMIC+0x188>
   3a4b4:	f941d211 	ldr	x17, [x16, #928]
   3a4b8:	910e8210 	add	x16, x16, #0x3a0
   3a4bc:	d61f0220 	br	x17

000000000003a4c0 <apr_file_open_flags_stdout@plt>:
   3a4c0:	f0000430 	adrp	x16, c1000 <_DYNAMIC+0x188>
   3a4c4:	f941d611 	ldr	x17, [x16, #936]
   3a4c8:	910ea210 	add	x16, x16, #0x3a8
   3a4cc:	d61f0220 	br	x17

000000000003a4d0 <apr_pool_tag@plt>:
   3a4d0:	f0000430 	adrp	x16, c1000 <_DYNAMIC+0x188>
   3a4d4:	f941da11 	ldr	x17, [x16, #944]
   3a4d8:	910ec210 	add	x16, x16, #0x3b0
   3a4dc:	d61f0220 	br	x17

000000000003a4e0 <apr_hash_this_key@plt>:
   3a4e0:	f0000430 	adrp	x16, c1000 <_DYNAMIC+0x188>
   3a4e4:	f941de11 	ldr	x17, [x16, #952]
   3a4e8:	910ee210 	add	x16, x16, #0x3b8
   3a4ec:	d61f0220 	br	x17

000000000003a4f0 <apr_brigade_split_ex@plt>:
   3a4f0:	f0000430 	adrp	x16, c1000 <_DYNAMIC+0x188>
   3a4f4:	f941e211 	ldr	x17, [x16, #960]
   3a4f8:	910f0210 	add	x16, x16, #0x3c0
   3a4fc:	d61f0220 	br	x17

000000000003a500 <apr_hash_set@plt>:
   3a500:	f0000430 	adrp	x16, c1000 <_DYNAMIC+0x188>
   3a504:	f941e611 	ldr	x17, [x16, #968]
   3a508:	910f2210 	add	x16, x16, #0x3c8
   3a50c:	d61f0220 	br	x17

000000000003a510 <apr_skiplist_alloc@plt>:
   3a510:	f0000430 	adrp	x16, c1000 <_DYNAMIC+0x188>
   3a514:	f941ea11 	ldr	x17, [x16, #976]
   3a518:	910f4210 	add	x16, x16, #0x3d0
   3a51c:	d61f0220 	br	x17

000000000003a520 <semctl@plt>:
   3a520:	f0000430 	adrp	x16, c1000 <_DYNAMIC+0x188>
   3a524:	f941ee11 	ldr	x17, [x16, #984]
   3a528:	910f6210 	add	x16, x16, #0x3d8
   3a52c:	d61f0220 	br	x17

000000000003a530 <apr_file_dup@plt>:
   3a530:	f0000430 	adrp	x16, c1000 <_DYNAMIC+0x188>
   3a534:	f941f211 	ldr	x17, [x16, #992]
   3a538:	910f8210 	add	x16, x16, #0x3e0
   3a53c:	d61f0220 	br	x17

000000000003a540 <apr_os_shm_put@plt>:
   3a540:	f0000430 	adrp	x16, c1000 <_DYNAMIC+0x188>
   3a544:	f941f611 	ldr	x17, [x16, #1000]
   3a548:	910fa210 	add	x16, x16, #0x3e8
   3a54c:	d61f0220 	br	x17

000000000003a550 <apr_array_copy@plt>:
   3a550:	f0000430 	adrp	x16, c1000 <_DYNAMIC+0x188>
   3a554:	f941fa11 	ldr	x17, [x16, #1008]
   3a558:	910fc210 	add	x16, x16, #0x3f0
   3a55c:	d61f0220 	br	x17

000000000003a560 <apr_match_glob@plt>:
   3a560:	f0000430 	adrp	x16, c1000 <_DYNAMIC+0x188>
   3a564:	f941fe11 	ldr	x17, [x16, #1016]
   3a568:	910fe210 	add	x16, x16, #0x3f8
   3a56c:	d61f0220 	br	x17

000000000003a570 <apr_app_initialize@plt>:
   3a570:	f0000430 	adrp	x16, c1000 <_DYNAMIC+0x188>
   3a574:	f9420211 	ldr	x17, [x16, #1024]
   3a578:	91100210 	add	x16, x16, #0x400
   3a57c:	d61f0220 	br	x17

000000000003a580 <apr_pool_child_cleanup_set@plt>:
   3a580:	f0000430 	adrp	x16, c1000 <_DYNAMIC+0x188>
   3a584:	f9420611 	ldr	x17, [x16, #1032]
   3a588:	91102210 	add	x16, x16, #0x408
   3a58c:	d61f0220 	br	x17

000000000003a590 <apr_pescape_path@plt>:
   3a590:	f0000430 	adrp	x16, c1000 <_DYNAMIC+0x188>
   3a594:	f9420a11 	ldr	x17, [x16, #1040]
   3a598:	91104210 	add	x16, x16, #0x410
   3a59c:	d61f0220 	br	x17

000000000003a5a0 <apr_xml_quote_elem@plt>:
   3a5a0:	f0000430 	adrp	x16, c1000 <_DYNAMIC+0x188>
   3a5a4:	f9420e11 	ldr	x17, [x16, #1048]
   3a5a8:	91106210 	add	x16, x16, #0x418
   3a5ac:	d61f0220 	br	x17

000000000003a5b0 <apr_allocator_owner_set@plt>:
   3a5b0:	f0000430 	adrp	x16, c1000 <_DYNAMIC+0x188>
   3a5b4:	f9421211 	ldr	x17, [x16, #1056]
   3a5b8:	91108210 	add	x16, x16, #0x420
   3a5bc:	d61f0220 	br	x17

000000000003a5c0 <apr_dir_open@plt>:
   3a5c0:	f0000430 	adrp	x16, c1000 <_DYNAMIC+0x188>
   3a5c4:	f9421611 	ldr	x17, [x16, #1064]
   3a5c8:	9110a210 	add	x16, x16, #0x428
   3a5cc:	d61f0220 	br	x17

000000000003a5d0 <apr_os_threadkey_get@plt>:
   3a5d0:	f0000430 	adrp	x16, c1000 <_DYNAMIC+0x188>
   3a5d4:	f9421a11 	ldr	x17, [x16, #1072]
   3a5d8:	9110c210 	add	x16, x16, #0x430
   3a5dc:	d61f0220 	br	x17

000000000003a5e0 <apr_pool_parent_get@plt>:
   3a5e0:	f0000430 	adrp	x16, c1000 <_DYNAMIC+0x188>
   3a5e4:	f9421e11 	ldr	x17, [x16, #1080]
   3a5e8:	9110e210 	add	x16, x16, #0x438
   3a5ec:	d61f0220 	br	x17

000000000003a5f0 <apr_sdbm_lock@plt>:
   3a5f0:	f0000430 	adrp	x16, c1000 <_DYNAMIC+0x188>
   3a5f4:	f9422211 	ldr	x17, [x16, #1088]
   3a5f8:	91110210 	add	x16, x16, #0x440
   3a5fc:	d61f0220 	br	x17

000000000003a600 <apr_thread_rwlock_unlock@plt>:
   3a600:	f0000430 	adrp	x16, c1000 <_DYNAMIC+0x188>
   3a604:	f9422611 	ldr	x17, [x16, #1096]
   3a608:	91112210 	add	x16, x16, #0x448
   3a60c:	d61f0220 	br	x17

000000000003a610 <apr_version_string@plt>:
   3a610:	f0000430 	adrp	x16, c1000 <_DYNAMIC+0x188>
   3a614:	f9422a11 	ldr	x17, [x16, #1104]
   3a618:	91114210 	add	x16, x16, #0x450
   3a61c:	d61f0220 	br	x17

000000000003a620 <apr_random_secure_bytes@plt>:
   3a620:	f0000430 	adrp	x16, c1000 <_DYNAMIC+0x188>
   3a624:	f9422e11 	ldr	x17, [x16, #1112]
   3a628:	91116210 	add	x16, x16, #0x458
   3a62c:	d61f0220 	br	x17

000000000003a630 <apr_reslist_release@plt>:
   3a630:	f0000430 	adrp	x16, c1000 <_DYNAMIC+0x188>
   3a634:	f9423211 	ldr	x17, [x16, #1120]
   3a638:	91118210 	add	x16, x16, #0x460
   3a63c:	d61f0220 	br	x17

000000000003a640 <apr_md4_init@plt>:
   3a640:	f0000430 	adrp	x16, c1000 <_DYNAMIC+0x188>
   3a644:	f9423611 	ldr	x17, [x16, #1128]
   3a648:	9111a210 	add	x16, x16, #0x468
   3a64c:	d61f0220 	br	x17

000000000003a650 <apr_file_open_stdin@plt>:
   3a650:	f0000430 	adrp	x16, c1000 <_DYNAMIC+0x188>
   3a654:	f9423a11 	ldr	x17, [x16, #1136]
   3a658:	9111c210 	add	x16, x16, #0x470
   3a65c:	d61f0220 	br	x17

000000000003a660 <apr_os_file_get@plt>:
   3a660:	f0000430 	adrp	x16, c1000 <_DYNAMIC+0x188>
   3a664:	f9423e11 	ldr	x17, [x16, #1144]
   3a668:	9111e210 	add	x16, x16, #0x478
   3a66c:	d61f0220 	br	x17

000000000003a670 <apr_dbd_set_dbname@plt>:
   3a670:	f0000430 	adrp	x16, c1000 <_DYNAMIC+0x188>
   3a674:	f9424211 	ldr	x17, [x16, #1152]
   3a678:	91120210 	add	x16, x16, #0x480
   3a67c:	d61f0220 	br	x17

000000000003a680 <apr_mmap_create@plt>:
   3a680:	f0000430 	adrp	x16, c1000 <_DYNAMIC+0x188>
   3a684:	f9424611 	ldr	x17, [x16, #1160]
   3a688:	91122210 	add	x16, x16, #0x488
   3a68c:	d61f0220 	br	x17

000000000003a690 <apr_procattr_user_set@plt>:
   3a690:	f0000430 	adrp	x16, c1000 <_DYNAMIC+0x188>
   3a694:	f9424a11 	ldr	x17, [x16, #1168]
   3a698:	91124210 	add	x16, x16, #0x490
   3a69c:	d61f0220 	br	x17

000000000003a6a0 <apr_atomic_sub32@plt>:
   3a6a0:	f0000430 	adrp	x16, c1000 <_DYNAMIC+0x188>
   3a6a4:	f9424e11 	ldr	x17, [x16, #1176]
   3a6a8:	91126210 	add	x16, x16, #0x498
   3a6ac:	d61f0220 	br	x17

000000000003a6b0 <apr_thread_pool_thread_max_set@plt>:
   3a6b0:	f0000430 	adrp	x16, c1000 <_DYNAMIC+0x188>
   3a6b4:	f9425211 	ldr	x17, [x16, #1184]
   3a6b8:	91128210 	add	x16, x16, #0x4a0
   3a6bc:	d61f0220 	br	x17

000000000003a6c0 <apr_table_do@plt>:
   3a6c0:	f0000430 	adrp	x16, c1000 <_DYNAMIC+0x188>
   3a6c4:	f9425611 	ldr	x17, [x16, #1192]
   3a6c8:	9112a210 	add	x16, x16, #0x4a8
   3a6cc:	d61f0220 	br	x17

000000000003a6d0 <apr_pvsprintf@plt>:
   3a6d0:	f0000430 	adrp	x16, c1000 <_DYNAMIC+0x188>
   3a6d4:	f9425a11 	ldr	x17, [x16, #1200]
   3a6d8:	9112c210 	add	x16, x16, #0x4b0
   3a6dc:	d61f0220 	br	x17

000000000003a6e0 <apr_allocator_free@plt>:
   3a6e0:	f0000430 	adrp	x16, c1000 <_DYNAMIC+0x188>
   3a6e4:	f9425e11 	ldr	x17, [x16, #1208]
   3a6e8:	9112e210 	add	x16, x16, #0x4b8
   3a6ec:	d61f0220 	br	x17

000000000003a6f0 <apr_escape_path@plt>:
   3a6f0:	f0000430 	adrp	x16, c1000 <_DYNAMIC+0x188>
   3a6f4:	f9426211 	ldr	x17, [x16, #1216]
   3a6f8:	91130210 	add	x16, x16, #0x4c0
   3a6fc:	d61f0220 	br	x17

000000000003a700 <apr_redis_incr@plt>:
   3a700:	f0000430 	adrp	x16, c1000 <_DYNAMIC+0x188>
   3a704:	f9426611 	ldr	x17, [x16, #1224]
   3a708:	91132210 	add	x16, x16, #0x4c8
   3a70c:	d61f0220 	br	x17

000000000003a710 <apr_cpystrn@plt>:
   3a710:	f0000430 	adrp	x16, c1000 <_DYNAMIC+0x188>
   3a714:	f9426a11 	ldr	x17, [x16, #1232]
   3a718:	91134210 	add	x16, x16, #0x4d0
   3a71c:	d61f0220 	br	x17

000000000003a720 <apr_base64_encode@plt>:
   3a720:	f0000430 	adrp	x16, c1000 <_DYNAMIC+0x188>
   3a724:	f9426e11 	ldr	x17, [x16, #1240]
   3a728:	91136210 	add	x16, x16, #0x4d8
   3a72c:	d61f0220 	br	x17

000000000003a730 <apr_table_set@plt>:
   3a730:	f0000430 	adrp	x16, c1000 <_DYNAMIC+0x188>
   3a734:	f9427211 	ldr	x17, [x16, #1248]
   3a738:	91138210 	add	x16, x16, #0x4e0
   3a73c:	d61f0220 	br	x17

000000000003a740 <apr_global_mutex_trylock@plt>:
   3a740:	f0000430 	adrp	x16, c1000 <_DYNAMIC+0x188>
   3a744:	f9427611 	ldr	x17, [x16, #1256]
   3a748:	9113a210 	add	x16, x16, #0x4e8
   3a74c:	d61f0220 	br	x17

000000000003a750 <getgrnam@plt>:
   3a750:	f0000430 	adrp	x16, c1000 <_DYNAMIC+0x188>
   3a754:	f9427a11 	ldr	x17, [x16, #1264]
   3a758:	9113c210 	add	x16, x16, #0x4f0
   3a75c:	d61f0220 	br	x17

000000000003a760 <apr_pencode_base64_binary@plt>:
   3a760:	f0000430 	adrp	x16, c1000 <_DYNAMIC+0x188>
   3a764:	f9427e11 	ldr	x17, [x16, #1272]
   3a768:	9113e210 	add	x16, x16, #0x4f8
   3a76c:	d61f0220 	br	x17

000000000003a770 <apr_pescape_echo@plt>:
   3a770:	f0000430 	adrp	x16, c1000 <_DYNAMIC+0x188>
   3a774:	f9428211 	ldr	x17, [x16, #1280]
   3a778:	91140210 	add	x16, x16, #0x500
   3a77c:	d61f0220 	br	x17

000000000003a780 <apr_bucket_transient_create@plt>:
   3a780:	f0000430 	adrp	x16, c1000 <_DYNAMIC+0x188>
   3a784:	f9428611 	ldr	x17, [x16, #1288]
   3a788:	91142210 	add	x16, x16, #0x508
   3a78c:	d61f0220 	br	x17

000000000003a790 <apr_os_pipe_put_ex@plt>:
   3a790:	f0000430 	adrp	x16, c1000 <_DYNAMIC+0x188>
   3a794:	f9428a11 	ldr	x17, [x16, #1296]
   3a798:	91144210 	add	x16, x16, #0x510
   3a79c:	d61f0220 	br	x17

000000000003a7a0 <apr_mmap_delete@plt>:
   3a7a0:	f0000430 	adrp	x16, c1000 <_DYNAMIC+0x188>
   3a7a4:	f9428e11 	ldr	x17, [x16, #1304]
   3a7a8:	91146210 	add	x16, x16, #0x518
   3a7ac:	d61f0220 	br	x17

000000000003a7b0 <apr_sockaddr_ip_getbuf@plt>:
   3a7b0:	f0000430 	adrp	x16, c1000 <_DYNAMIC+0x188>
   3a7b4:	f9429211 	ldr	x17, [x16, #1312]
   3a7b8:	91148210 	add	x16, x16, #0x520
   3a7bc:	d61f0220 	br	x17

000000000003a7c0 <__cxa_finalize@plt>:
   3a7c0:	f0000430 	adrp	x16, c1000 <_DYNAMIC+0x188>
   3a7c4:	f9429611 	ldr	x17, [x16, #1320]
   3a7c8:	9114a210 	add	x16, x16, #0x528
   3a7cc:	d61f0220 	br	x17

000000000003a7d0 <apr_thread_pool_threshold_get@plt>:
   3a7d0:	f0000430 	adrp	x16, c1000 <_DYNAMIC+0x188>
   3a7d4:	f9429a11 	ldr	x17, [x16, #1328]
   3a7d8:	9114c210 	add	x16, x16, #0x530
   3a7dc:	d61f0220 	br	x17

000000000003a7e0 <apr_global_mutex_timedlock@plt>:
   3a7e0:	f0000430 	adrp	x16, c1000 <_DYNAMIC+0x188>
   3a7e4:	f9429e11 	ldr	x17, [x16, #1336]
   3a7e8:	9114e210 	add	x16, x16, #0x538
   3a7ec:	d61f0220 	br	x17

000000000003a7f0 <apr_thread_cond_signal@plt>:
   3a7f0:	f0000430 	adrp	x16, c1000 <_DYNAMIC+0x188>
   3a7f4:	f942a211 	ldr	x17, [x16, #1344]
   3a7f8:	91150210 	add	x16, x16, #0x540
   3a7fc:	d61f0220 	br	x17

000000000003a800 <getloadavg@plt>:
   3a800:	f0000430 	adrp	x16, c1000 <_DYNAMIC+0x188>
   3a804:	f942a611 	ldr	x17, [x16, #1352]
   3a808:	91152210 	add	x16, x16, #0x548
   3a80c:	d61f0220 	br	x17

000000000003a810 <apr_global_mutex_create@plt>:
   3a810:	f0000430 	adrp	x16, c1000 <_DYNAMIC+0x188>
   3a814:	f942aa11 	ldr	x17, [x16, #1360]
   3a818:	91154210 	add	x16, x16, #0x550
   3a81c:	d61f0220 	br	x17

000000000003a820 <apr_cstr_strtoui64@plt>:
   3a820:	f0000430 	adrp	x16, c1000 <_DYNAMIC+0x188>
   3a824:	f942ae11 	ldr	x17, [x16, #1368]
   3a828:	91156210 	add	x16, x16, #0x558
   3a82c:	d61f0220 	br	x17

000000000003a830 <apr_file_buffer_set@plt>:
   3a830:	f0000430 	adrp	x16, c1000 <_DYNAMIC+0x188>
   3a834:	f942b211 	ldr	x17, [x16, #1376]
   3a838:	91158210 	add	x16, x16, #0x560
   3a83c:	d61f0220 	br	x17

000000000003a840 <__cxa_atexit@plt>:
   3a840:	f0000430 	adrp	x16, c1000 <_DYNAMIC+0x188>
   3a844:	f942b611 	ldr	x17, [x16, #1384]
   3a848:	9115a210 	add	x16, x16, #0x568
   3a84c:	d61f0220 	br	x17

000000000003a850 <apr_random_add_entropy@plt>:
   3a850:	f0000430 	adrp	x16, c1000 <_DYNAMIC+0x188>
   3a854:	f942ba11 	ldr	x17, [x16, #1392]
   3a858:	9115c210 	add	x16, x16, #0x570
   3a85c:	d61f0220 	br	x17

000000000003a860 <apr_pool_create_ex@plt>:
   3a860:	f0000430 	adrp	x16, c1000 <_DYNAMIC+0x188>
   3a864:	f942be11 	ldr	x17, [x16, #1400]
   3a868:	9115e210 	add	x16, x16, #0x578
   3a86c:	d61f0220 	br	x17

000000000003a870 <apr_threadattr_stacksize_set@plt>:
   3a870:	f0000430 	adrp	x16, c1000 <_DYNAMIC+0x188>
   3a874:	f942c211 	ldr	x17, [x16, #1408]
   3a878:	91160210 	add	x16, x16, #0x580
   3a87c:	d61f0220 	br	x17

000000000003a880 <apr_env_get@plt>:
   3a880:	f0000430 	adrp	x16, c1000 <_DYNAMIC+0x188>
   3a884:	f942c611 	ldr	x17, [x16, #1416]
   3a888:	91162210 	add	x16, x16, #0x588
   3a88c:	d61f0220 	br	x17

000000000003a890 <apr_file_pipe_create@plt>:
   3a890:	f0000430 	adrp	x16, c1000 <_DYNAMIC+0x188>
   3a894:	f942ca11 	ldr	x17, [x16, #1424]
   3a898:	91164210 	add	x16, x16, #0x590
   3a89c:	d61f0220 	br	x17

000000000003a8a0 <apr_pool_abort_set@plt>:
   3a8a0:	f0000430 	adrp	x16, c1000 <_DYNAMIC+0x188>
   3a8a4:	f942ce11 	ldr	x17, [x16, #1432]
   3a8a8:	91166210 	add	x16, x16, #0x598
   3a8ac:	d61f0220 	br	x17

000000000003a8b0 <pcre_compile2@plt>:
   3a8b0:	f0000430 	adrp	x16, c1000 <_DYNAMIC+0x188>
   3a8b4:	f942d211 	ldr	x17, [x16, #1440]
   3a8b8:	91168210 	add	x16, x16, #0x5a0
   3a8bc:	d61f0220 	br	x17

000000000003a8c0 <apr_thread_pool_top@plt>:
   3a8c0:	f0000430 	adrp	x16, c1000 <_DYNAMIC+0x188>
   3a8c4:	f942d611 	ldr	x17, [x16, #1448]
   3a8c8:	9116a210 	add	x16, x16, #0x5a8
   3a8cc:	d61f0220 	br	x17

000000000003a8d0 <apr_siphash48_auth@plt>:
   3a8d0:	f0000430 	adrp	x16, c1000 <_DYNAMIC+0x188>
   3a8d4:	f942da11 	ldr	x17, [x16, #1456]
   3a8d8:	9116c210 	add	x16, x16, #0x5b0
   3a8dc:	d61f0220 	br	x17

000000000003a8e0 <qsort@plt>:
   3a8e0:	f0000430 	adrp	x16, c1000 <_DYNAMIC+0x188>
   3a8e4:	f942de11 	ldr	x17, [x16, #1464]
   3a8e8:	9116e210 	add	x16, x16, #0x5b8
   3a8ec:	d61f0220 	br	x17

000000000003a8f0 <apr_date_parse_http@plt>:
   3a8f0:	f0000430 	adrp	x16, c1000 <_DYNAMIC+0x188>
   3a8f4:	f942e211 	ldr	x17, [x16, #1472]
   3a8f8:	91170210 	add	x16, x16, #0x5c0
   3a8fc:	d61f0220 	br	x17

000000000003a900 <apr_escape_urlencoded@plt>:
   3a900:	f0000430 	adrp	x16, c1000 <_DYNAMIC+0x188>
   3a904:	f942e611 	ldr	x17, [x16, #1480]
   3a908:	91172210 	add	x16, x16, #0x5c8
   3a90c:	d61f0220 	br	x17

000000000003a910 <apr_pencode_base64@plt>:
   3a910:	f0000430 	adrp	x16, c1000 <_DYNAMIC+0x188>
   3a914:	f942ea11 	ldr	x17, [x16, #1488]
   3a918:	91174210 	add	x16, x16, #0x5d0
   3a91c:	d61f0220 	br	x17

000000000003a920 <apr_dbd_init@plt>:
   3a920:	f0000430 	adrp	x16, c1000 <_DYNAMIC+0x188>
   3a924:	f942ee11 	ldr	x17, [x16, #1496]
   3a928:	91176210 	add	x16, x16, #0x5d8
   3a92c:	d61f0220 	br	x17

000000000003a930 <apr_queue_interrupt_all@plt>:
   3a930:	f0000430 	adrp	x16, c1000 <_DYNAMIC+0x188>
   3a934:	f942f211 	ldr	x17, [x16, #1504]
   3a938:	91178210 	add	x16, x16, #0x5e0
   3a93c:	d61f0220 	br	x17

000000000003a940 <apr_os_file_put@plt>:
   3a940:	f0000430 	adrp	x16, c1000 <_DYNAMIC+0x188>
   3a944:	f942f611 	ldr	x17, [x16, #1512]
   3a948:	9117a210 	add	x16, x16, #0x5e8
   3a94c:	d61f0220 	br	x17

000000000003a950 <apr_bucket_pipe_make@plt>:
   3a950:	f0000430 	adrp	x16, c1000 <_DYNAMIC+0x188>
   3a954:	f942fa11 	ldr	x17, [x16, #1520]
   3a958:	9117c210 	add	x16, x16, #0x5f0
   3a95c:	d61f0220 	br	x17

000000000003a960 <apr_pollset_method_name@plt>:
   3a960:	f0000430 	adrp	x16, c1000 <_DYNAMIC+0x188>
   3a964:	f942fe11 	ldr	x17, [x16, #1528]
   3a968:	9117e210 	add	x16, x16, #0x5f8
   3a96c:	d61f0220 	br	x17

000000000003a970 <kill@plt>:
   3a970:	f0000430 	adrp	x16, c1000 <_DYNAMIC+0x188>
   3a974:	f9430211 	ldr	x17, [x16, #1536]
   3a978:	91180210 	add	x16, x16, #0x600
   3a97c:	d61f0220 	br	x17

000000000003a980 <apr_table_get@plt>:
   3a980:	f0000430 	adrp	x16, c1000 <_DYNAMIC+0x188>
   3a984:	f9430611 	ldr	x17, [x16, #1544]
   3a988:	91182210 	add	x16, x16, #0x608
   3a98c:	d61f0220 	br	x17

000000000003a990 <apr_skiplist_init@plt>:
   3a990:	f0000430 	adrp	x16, c1000 <_DYNAMIC+0x188>
   3a994:	f9430a11 	ldr	x17, [x16, #1552]
   3a998:	91184210 	add	x16, x16, #0x610
   3a99c:	d61f0220 	br	x17

000000000003a9a0 <apr_hash_copy@plt>:
   3a9a0:	f0000430 	adrp	x16, c1000 <_DYNAMIC+0x188>
   3a9a4:	f9430e11 	ldr	x17, [x16, #1560]
   3a9a8:	91186210 	add	x16, x16, #0x618
   3a9ac:	d61f0220 	br	x17

000000000003a9b0 <apr_thread_pool_destroy@plt>:
   3a9b0:	f0000430 	adrp	x16, c1000 <_DYNAMIC+0x188>
   3a9b4:	f9431211 	ldr	x17, [x16, #1568]
   3a9b8:	91188210 	add	x16, x16, #0x620
   3a9bc:	d61f0220 	br	x17

000000000003a9c0 <apr_pool_clear@plt>:
   3a9c0:	f0000430 	adrp	x16, c1000 <_DYNAMIC+0x188>
   3a9c4:	f9431611 	ldr	x17, [x16, #1576]
   3a9c8:	9118a210 	add	x16, x16, #0x628
   3a9cc:	d61f0220 	br	x17

000000000003a9d0 <apr_sha1_init@plt>:
   3a9d0:	f0000430 	adrp	x16, c1000 <_DYNAMIC+0x188>
   3a9d4:	f9431a11 	ldr	x17, [x16, #1584]
   3a9d8:	9118c210 	add	x16, x16, #0x630
   3a9dc:	d61f0220 	br	x17

000000000003a9e0 <apr_pool_is_ancestor@plt>:
   3a9e0:	f0000430 	adrp	x16, c1000 <_DYNAMIC+0x188>
   3a9e4:	f9431e11 	ldr	x17, [x16, #1592]
   3a9e8:	9118e210 	add	x16, x16, #0x638
   3a9ec:	d61f0220 	br	x17

000000000003a9f0 <fork@plt>:
   3a9f0:	f0000430 	adrp	x16, c1000 <_DYNAMIC+0x188>
   3a9f4:	f9432211 	ldr	x17, [x16, #1600]
   3a9f8:	91190210 	add	x16, x16, #0x640
   3a9fc:	d61f0220 	br	x17

000000000003aa00 <apr_redis_disable_server@plt>:
   3aa00:	f0000430 	adrp	x16, c1000 <_DYNAMIC+0x188>
   3aa04:	f9432611 	ldr	x17, [x16, #1608]
   3aa08:	91192210 	add	x16, x16, #0x648
   3aa0c:	d61f0220 	br	x17

000000000003aa10 <apr_file_namedpipe_create@plt>:
   3aa10:	f0000430 	adrp	x16, c1000 <_DYNAMIC+0x188>
   3aa14:	f9432a11 	ldr	x17, [x16, #1616]
   3aa18:	91194210 	add	x16, x16, #0x650
   3aa1c:	d61f0220 	br	x17

000000000003aa20 <apr_skiplist_height@plt>:
   3aa20:	f0000430 	adrp	x16, c1000 <_DYNAMIC+0x188>
   3aa24:	f9432e11 	ldr	x17, [x16, #1624]
   3aa28:	91196210 	add	x16, x16, #0x658
   3aa2c:	d61f0220 	br	x17

000000000003aa30 <apr_proc_mutex_pool_get@plt>:
   3aa30:	f0000430 	adrp	x16, c1000 <_DYNAMIC+0x188>
   3aa34:	f9433211 	ldr	x17, [x16, #1632]
   3aa38:	91198210 	add	x16, x16, #0x660
   3aa3c:	d61f0220 	br	x17

000000000003aa40 <apr_filepath_root@plt>:
   3aa40:	f0000430 	adrp	x16, c1000 <_DYNAMIC+0x188>
   3aa44:	f9433611 	ldr	x17, [x16, #1640]
   3aa48:	9119a210 	add	x16, x16, #0x668
   3aa4c:	d61f0220 	br	x17

000000000003aa50 <apr_brigade_puts@plt>:
   3aa50:	f0000430 	adrp	x16, c1000 <_DYNAMIC+0x188>
   3aa54:	f9433a11 	ldr	x17, [x16, #1648]
   3aa58:	9119c210 	add	x16, x16, #0x670
   3aa5c:	d61f0220 	br	x17

000000000003aa60 <apr_siphash24_auth@plt>:
   3aa60:	f0000430 	adrp	x16, c1000 <_DYNAMIC+0x188>
   3aa64:	f9433e11 	ldr	x17, [x16, #1656]
   3aa68:	9119e210 	add	x16, x16, #0x678
   3aa6c:	d61f0220 	br	x17

000000000003aa70 <apr_skiplist_remove_compare@plt>:
   3aa70:	f0000430 	adrp	x16, c1000 <_DYNAMIC+0x188>
   3aa74:	f9434211 	ldr	x17, [x16, #1664]
   3aa78:	911a0210 	add	x16, x16, #0x680
   3aa7c:	d61f0220 	br	x17

000000000003aa80 <apr_base64_decode_len@plt>:
   3aa80:	f0000430 	adrp	x16, c1000 <_DYNAMIC+0x188>
   3aa84:	f9434611 	ldr	x17, [x16, #1672]
   3aa88:	911a2210 	add	x16, x16, #0x688
   3aa8c:	d61f0220 	br	x17

000000000003aa90 <apr_pencode_base32_binary@plt>:
   3aa90:	f0000430 	adrp	x16, c1000 <_DYNAMIC+0x188>
   3aa94:	f9434a11 	ldr	x17, [x16, #1680]
   3aa98:	911a4210 	add	x16, x16, #0x690
   3aa9c:	d61f0220 	br	x17

000000000003aaa0 <pcre_version@plt>:
   3aaa0:	f0000430 	adrp	x16, c1000 <_DYNAMIC+0x188>
   3aaa4:	f9434e11 	ldr	x17, [x16, #1688]
   3aaa8:	911a6210 	add	x16, x16, #0x698
   3aaac:	d61f0220 	br	x17

000000000003aab0 <apr_pool_create_ex_debug@plt>:
   3aab0:	f0000430 	adrp	x16, c1000 <_DYNAMIC+0x188>
   3aab4:	f9435211 	ldr	x17, [x16, #1696]
   3aab8:	911a8210 	add	x16, x16, #0x6a0
   3aabc:	d61f0220 	br	x17

000000000003aac0 <apr_dbd_check_conn@plt>:
   3aac0:	f0000430 	adrp	x16, c1000 <_DYNAMIC+0x188>
   3aac4:	f9435611 	ldr	x17, [x16, #1704]
   3aac8:	911aa210 	add	x16, x16, #0x6a8
   3aacc:	d61f0220 	br	x17

000000000003aad0 <apr_os_proc_mutex_get@plt>:
   3aad0:	f0000430 	adrp	x16, c1000 <_DYNAMIC+0x188>
   3aad4:	f9435a11 	ldr	x17, [x16, #1712]
   3aad8:	911ac210 	add	x16, x16, #0x6b0
   3aadc:	d61f0220 	br	x17

000000000003aae0 <apr_date_checkmask@plt>:
   3aae0:	f0000430 	adrp	x16, c1000 <_DYNAMIC+0x188>
   3aae4:	f9435e11 	ldr	x17, [x16, #1720]
   3aae8:	911ae210 	add	x16, x16, #0x6b8
   3aaec:	d61f0220 	br	x17

000000000003aaf0 <apr_pool_abort_get@plt>:
   3aaf0:	f0000430 	adrp	x16, c1000 <_DYNAMIC+0x188>
   3aaf4:	f9436211 	ldr	x17, [x16, #1728]
   3aaf8:	911b0210 	add	x16, x16, #0x6c0
   3aafc:	d61f0220 	br	x17

000000000003ab00 <apr_temp_dir_get@plt>:
   3ab00:	f0000430 	adrp	x16, c1000 <_DYNAMIC+0x188>
   3ab04:	f9436611 	ldr	x17, [x16, #1736]
   3ab08:	911b2210 	add	x16, x16, #0x6c8
   3ab0c:	d61f0220 	br	x17

000000000003ab10 <apr_memcache_add_server@plt>:
   3ab10:	f0000430 	adrp	x16, c1000 <_DYNAMIC+0x188>
   3ab14:	f9436a11 	ldr	x17, [x16, #1744]
   3ab18:	911b4210 	add	x16, x16, #0x6d0
   3ab1c:	d61f0220 	br	x17

000000000003ab20 <apr_queue_term@plt>:
   3ab20:	f0000430 	adrp	x16, c1000 <_DYNAMIC+0x188>
   3ab24:	f9436e11 	ldr	x17, [x16, #1752]
   3ab28:	911b6210 	add	x16, x16, #0x6d8
   3ab2c:	d61f0220 	br	x17

000000000003ab30 <__ctype_tolower_loc@plt>:
   3ab30:	f0000430 	adrp	x16, c1000 <_DYNAMIC+0x188>
   3ab34:	f9437211 	ldr	x17, [x16, #1760]
   3ab38:	911b8210 	add	x16, x16, #0x6e0
   3ab3c:	d61f0220 	br	x17

000000000003ab40 <apr_atomic_read64@plt>:
   3ab40:	f0000430 	adrp	x16, c1000 <_DYNAMIC+0x188>
   3ab44:	f9437611 	ldr	x17, [x16, #1768]
   3ab48:	911ba210 	add	x16, x16, #0x6e8
   3ab4c:	d61f0220 	br	x17

000000000003ab50 <apr_sdbm_firstkey@plt>:
   3ab50:	f0000430 	adrp	x16, c1000 <_DYNAMIC+0x188>
   3ab54:	f9437a11 	ldr	x17, [x16, #1776]
   3ab58:	911bc210 	add	x16, x16, #0x6f0
   3ab5c:	d61f0220 	br	x17

000000000003ab60 <apr_dbd_open@plt>:
   3ab60:	f0000430 	adrp	x16, c1000 <_DYNAMIC+0x188>
   3ab64:	f9437e11 	ldr	x17, [x16, #1784]
   3ab68:	911be210 	add	x16, x16, #0x6f8
   3ab6c:	d61f0220 	br	x17

000000000003ab70 <apr_atomic_dec32@plt>:
   3ab70:	f0000430 	adrp	x16, c1000 <_DYNAMIC+0x188>
   3ab74:	f9438211 	ldr	x17, [x16, #1792]
   3ab78:	911c0210 	add	x16, x16, #0x700
   3ab7c:	d61f0220 	br	x17

000000000003ab80 <apr_bucket_simple_copy@plt>:
   3ab80:	f0000430 	adrp	x16, c1000 <_DYNAMIC+0x188>
   3ab84:	f9438611 	ldr	x17, [x16, #1800]
   3ab88:	911c2210 	add	x16, x16, #0x708
   3ab8c:	d61f0220 	br	x17

000000000003ab90 <apr_table_compress@plt>:
   3ab90:	f0000430 	adrp	x16, c1000 <_DYNAMIC+0x188>
   3ab94:	f9438a11 	ldr	x17, [x16, #1808]
   3ab98:	911c4210 	add	x16, x16, #0x710
   3ab9c:	d61f0220 	br	x17

000000000003aba0 <apr_allocator_create@plt>:
   3aba0:	f0000430 	adrp	x16, c1000 <_DYNAMIC+0x188>
   3aba4:	f9438e11 	ldr	x17, [x16, #1816]
   3aba8:	911c6210 	add	x16, x16, #0x718
   3abac:	d61f0220 	br	x17

000000000003abb0 <stpcpy@plt>:
   3abb0:	f0000430 	adrp	x16, c1000 <_DYNAMIC+0x188>
   3abb4:	f9439211 	ldr	x17, [x16, #1824]
   3abb8:	911c8210 	add	x16, x16, #0x720
   3abbc:	d61f0220 	br	x17

000000000003abc0 <apr_thread_join@plt>:
   3abc0:	f0000430 	adrp	x16, c1000 <_DYNAMIC+0x188>
   3abc4:	f9439611 	ldr	x17, [x16, #1832]
   3abc8:	911ca210 	add	x16, x16, #0x728
   3abcc:	d61f0220 	br	x17

000000000003abd0 <apr_ipsubnet_create@plt>:
   3abd0:	f0000430 	adrp	x16, c1000 <_DYNAMIC+0x188>
   3abd4:	f9439a11 	ldr	x17, [x16, #1840]
   3abd8:	911cc210 	add	x16, x16, #0x730
   3abdc:	d61f0220 	br	x17

000000000003abe0 <apr_file_open_stderr@plt>:
   3abe0:	f0000430 	adrp	x16, c1000 <_DYNAMIC+0x188>
   3abe4:	f9439e11 	ldr	x17, [x16, #1848]
   3abe8:	911ce210 	add	x16, x16, #0x738
   3abec:	d61f0220 	br	x17

000000000003abf0 <apr_decode_base64@plt>:
   3abf0:	f0000430 	adrp	x16, c1000 <_DYNAMIC+0x188>
   3abf4:	f943a211 	ldr	x17, [x16, #1856]
   3abf8:	911d0210 	add	x16, x16, #0x740
   3abfc:	d61f0220 	br	x17

000000000003ac00 <apr_threadkey_private_set@plt>:
   3ac00:	f0000430 	adrp	x16, c1000 <_DYNAMIC+0x188>
   3ac04:	f943a611 	ldr	x17, [x16, #1864]
   3ac08:	911d2210 	add	x16, x16, #0x748
   3ac0c:	d61f0220 	br	x17

000000000003ac10 <apr_dbd_get_name@plt>:
   3ac10:	f0000430 	adrp	x16, c1000 <_DYNAMIC+0x188>
   3ac14:	f943aa11 	ldr	x17, [x16, #1872]
   3ac18:	911d4210 	add	x16, x16, #0x750
   3ac1c:	d61f0220 	br	x17

000000000003ac20 <apr_poll_method_defname@plt>:
   3ac20:	f0000430 	adrp	x16, c1000 <_DYNAMIC+0x188>
   3ac24:	f943ae11 	ldr	x17, [x16, #1880]
   3ac28:	911d6210 	add	x16, x16, #0x758
   3ac2c:	d61f0220 	br	x17

000000000003ac30 <apr_file_dup2@plt>:
   3ac30:	f0000430 	adrp	x16, c1000 <_DYNAMIC+0x188>
   3ac34:	f943b211 	ldr	x17, [x16, #1888]
   3ac38:	911d8210 	add	x16, x16, #0x760
   3ac3c:	d61f0220 	br	x17

000000000003ac40 <apr_pencode_base16_binary@plt>:
   3ac40:	f0000430 	adrp	x16, c1000 <_DYNAMIC+0x188>
   3ac44:	f943b611 	ldr	x17, [x16, #1896]
   3ac48:	911da210 	add	x16, x16, #0x768
   3ac4c:	d61f0220 	br	x17

000000000003ac50 <apr_time_exp_tz@plt>:
   3ac50:	f0000430 	adrp	x16, c1000 <_DYNAMIC+0x188>
   3ac54:	f943ba11 	ldr	x17, [x16, #1904]
   3ac58:	911dc210 	add	x16, x16, #0x770
   3ac5c:	d61f0220 	br	x17

000000000003ac60 <apr_pescape_ldap@plt>:
   3ac60:	f0000430 	adrp	x16, c1000 <_DYNAMIC+0x188>
   3ac64:	f943be11 	ldr	x17, [x16, #1912]
   3ac68:	911de210 	add	x16, x16, #0x778
   3ac6c:	d61f0220 	br	x17

000000000003ac70 <apr_itoa@plt>:
   3ac70:	f0000430 	adrp	x16, c1000 <_DYNAMIC+0x188>
   3ac74:	f943c211 	ldr	x17, [x16, #1920]
   3ac78:	911e0210 	add	x16, x16, #0x780
   3ac7c:	d61f0220 	br	x17

000000000003ac80 <apr_filepath_name_get@plt>:
   3ac80:	f0000430 	adrp	x16, c1000 <_DYNAMIC+0x188>
   3ac84:	f943c611 	ldr	x17, [x16, #1928]
   3ac88:	911e2210 	add	x16, x16, #0x788
   3ac8c:	d61f0220 	br	x17

000000000003ac90 <apr_sockaddr_info_copy@plt>:
   3ac90:	f0000430 	adrp	x16, c1000 <_DYNAMIC+0x188>
   3ac94:	f943ca11 	ldr	x17, [x16, #1936]
   3ac98:	911e4210 	add	x16, x16, #0x790
   3ac9c:	d61f0220 	br	x17

000000000003aca0 <apr_table_elts@plt>:
   3aca0:	f0000430 	adrp	x16, c1000 <_DYNAMIC+0x188>
   3aca4:	f943ce11 	ldr	x17, [x16, #1944]
   3aca8:	911e6210 	add	x16, x16, #0x798
   3acac:	d61f0220 	br	x17

000000000003acb0 <apr_proc_create@plt>:
   3acb0:	f0000430 	adrp	x16, c1000 <_DYNAMIC+0x188>
   3acb4:	f943d211 	ldr	x17, [x16, #1952]
   3acb8:	911e8210 	add	x16, x16, #0x7a0
   3acbc:	d61f0220 	br	x17

000000000003acc0 <apr_socket_pool_get@plt>:
   3acc0:	f0000430 	adrp	x16, c1000 <_DYNAMIC+0x188>
   3acc4:	f943d611 	ldr	x17, [x16, #1960]
   3acc8:	911ea210 	add	x16, x16, #0x7a8
   3accc:	d61f0220 	br	x17

000000000003acd0 <apr_off_t_toa@plt>:
   3acd0:	f0000430 	adrp	x16, c1000 <_DYNAMIC+0x188>
   3acd4:	f943da11 	ldr	x17, [x16, #1968]
   3acd8:	911ec210 	add	x16, x16, #0x7b0
   3acdc:	d61f0220 	br	x17

000000000003ace0 <apr_brigade_partition@plt>:
   3ace0:	f0000430 	adrp	x16, c1000 <_DYNAMIC+0x188>
   3ace4:	f943de11 	ldr	x17, [x16, #1976]
   3ace8:	911ee210 	add	x16, x16, #0x7b8
   3acec:	d61f0220 	br	x17

000000000003acf0 <apr_skiplist_destroy@plt>:
   3acf0:	f0000430 	adrp	x16, c1000 <_DYNAMIC+0x188>
   3acf4:	f943e211 	ldr	x17, [x16, #1984]
   3acf8:	911f0210 	add	x16, x16, #0x7c0
   3acfc:	d61f0220 	br	x17

000000000003ad00 <apr_file_info_get@plt>:
   3ad00:	f0000430 	adrp	x16, c1000 <_DYNAMIC+0x188>
   3ad04:	f943e611 	ldr	x17, [x16, #1992]
   3ad08:	911f2210 	add	x16, x16, #0x7c8
   3ad0c:	d61f0220 	br	x17

000000000003ad10 <apr_sockaddr_zone_get@plt>:
   3ad10:	f0000430 	adrp	x16, c1000 <_DYNAMIC+0x188>
   3ad14:	f943ea11 	ldr	x17, [x16, #2000]
   3ad18:	911f4210 	add	x16, x16, #0x7d0
   3ad1c:	d61f0220 	br	x17

000000000003ad20 <apr_md4_final@plt>:
   3ad20:	f0000430 	adrp	x16, c1000 <_DYNAMIC+0x188>
   3ad24:	f943ee11 	ldr	x17, [x16, #2008]
   3ad28:	911f6210 	add	x16, x16, #0x7d8
   3ad2c:	d61f0220 	br	x17

000000000003ad30 <apr_memcache_find_server_hash_default@plt>:
   3ad30:	f0000430 	adrp	x16, c1000 <_DYNAMIC+0x188>
   3ad34:	f943f211 	ldr	x17, [x16, #2016]
   3ad38:	911f8210 	add	x16, x16, #0x7e0
   3ad3c:	d61f0220 	br	x17

000000000003ad40 <apr_setup_signal_thread@plt>:
   3ad40:	f0000430 	adrp	x16, c1000 <_DYNAMIC+0x188>
   3ad44:	f943f611 	ldr	x17, [x16, #2024]
   3ad48:	911fa210 	add	x16, x16, #0x7e8
   3ad4c:	d61f0220 	br	x17

000000000003ad50 <apr_rmm_free@plt>:
   3ad50:	f0000430 	adrp	x16, c1000 <_DYNAMIC+0x188>
   3ad54:	f943fa11 	ldr	x17, [x16, #2032]
   3ad58:	911fc210 	add	x16, x16, #0x7f0
   3ad5c:	d61f0220 	br	x17

000000000003ad60 <apr_cstr_split@plt>:
   3ad60:	f0000430 	adrp	x16, c1000 <_DYNAMIC+0x188>
   3ad64:	f943fe11 	ldr	x17, [x16, #2040]
   3ad68:	911fe210 	add	x16, x16, #0x7f8
   3ad6c:	d61f0220 	br	x17

000000000003ad70 <apr_password_validate@plt>:
   3ad70:	f0000430 	adrp	x16, c1000 <_DYNAMIC+0x188>
   3ad74:	f9440211 	ldr	x17, [x16, #2048]
   3ad78:	91200210 	add	x16, x16, #0x800
   3ad7c:	d61f0220 	br	x17

000000000003ad80 <apr_pool_cleanup_kill@plt>:
   3ad80:	f0000430 	adrp	x16, c1000 <_DYNAMIC+0x188>
   3ad84:	f9440611 	ldr	x17, [x16, #2056]
   3ad88:	91202210 	add	x16, x16, #0x808
   3ad8c:	d61f0220 	br	x17

000000000003ad90 <apr_dbm_store@plt>:
   3ad90:	f0000430 	adrp	x16, c1000 <_DYNAMIC+0x188>
   3ad94:	f9440a11 	ldr	x17, [x16, #2064]
   3ad98:	91204210 	add	x16, x16, #0x810
   3ad9c:	d61f0220 	br	x17

000000000003ada0 <apr_dbm_exists@plt>:
   3ada0:	f0000430 	adrp	x16, c1000 <_DYNAMIC+0x188>
   3ada4:	f9440e11 	ldr	x17, [x16, #2072]
   3ada8:	91206210 	add	x16, x16, #0x818
   3adac:	d61f0220 	br	x17

000000000003adb0 <apr_thread_pool_thread_max_get@plt>:
   3adb0:	f0000430 	adrp	x16, c1000 <_DYNAMIC+0x188>
   3adb4:	f9441211 	ldr	x17, [x16, #2080]
   3adb8:	91208210 	add	x16, x16, #0x820
   3adbc:	d61f0220 	br	x17

000000000003adc0 <apr_bucket_pipe_create@plt>:
   3adc0:	f0000430 	adrp	x16, c1000 <_DYNAMIC+0x188>
   3adc4:	f9441611 	ldr	x17, [x16, #2088]
   3adc8:	9120a210 	add	x16, x16, #0x828
   3adcc:	d61f0220 	br	x17

000000000003add0 <apr_proc_mutex_timedlock@plt>:
   3add0:	f0000430 	adrp	x16, c1000 <_DYNAMIC+0x188>
   3add4:	f9441a11 	ldr	x17, [x16, #2096]
   3add8:	9120c210 	add	x16, x16, #0x830
   3addc:	d61f0220 	br	x17

000000000003ade0 <apr_skiplist_remove_all@plt>:
   3ade0:	f0000430 	adrp	x16, c1000 <_DYNAMIC+0x188>
   3ade4:	f9441e11 	ldr	x17, [x16, #2104]
   3ade8:	9120e210 	add	x16, x16, #0x838
   3adec:	d61f0220 	br	x17

000000000003adf0 <apr_bucket_socket_create@plt>:
   3adf0:	f0000430 	adrp	x16, c1000 <_DYNAMIC+0x188>
   3adf4:	f9442211 	ldr	x17, [x16, #2112]
   3adf8:	91210210 	add	x16, x16, #0x840
   3adfc:	d61f0220 	br	x17

000000000003ae00 <apr_memcache_hash_default@plt>:
   3ae00:	f0000430 	adrp	x16, c1000 <_DYNAMIC+0x188>
   3ae04:	f9442611 	ldr	x17, [x16, #2120]
   3ae08:	91212210 	add	x16, x16, #0x848
   3ae0c:	d61f0220 	br	x17

000000000003ae10 <apr_dso_sym@plt>:
   3ae10:	f0000430 	adrp	x16, c1000 <_DYNAMIC+0x188>
   3ae14:	f9442a11 	ldr	x17, [x16, #2128]
   3ae18:	91214210 	add	x16, x16, #0x850
   3ae1c:	d61f0220 	br	x17

000000000003ae20 <getpid@plt>:
   3ae20:	f0000430 	adrp	x16, c1000 <_DYNAMIC+0x188>
   3ae24:	f9442e11 	ldr	x17, [x16, #2136]
   3ae28:	91216210 	add	x16, x16, #0x858
   3ae2c:	d61f0220 	br	x17

000000000003ae30 <apr_procattr_error_check_set@plt>:
   3ae30:	f0000430 	adrp	x16, c1000 <_DYNAMIC+0x188>
   3ae34:	f9443211 	ldr	x17, [x16, #2144]
   3ae38:	91218210 	add	x16, x16, #0x860
   3ae3c:	d61f0220 	br	x17

000000000003ae40 <apr_dir_make@plt>:
   3ae40:	f0000430 	adrp	x16, c1000 <_DYNAMIC+0x188>
   3ae44:	f9443611 	ldr	x17, [x16, #2152]
   3ae48:	9121a210 	add	x16, x16, #0x868
   3ae4c:	d61f0220 	br	x17

000000000003ae50 <apr_mmap_dup@plt>:
   3ae50:	f0000430 	adrp	x16, c1000 <_DYNAMIC+0x188>
   3ae54:	f9443a11 	ldr	x17, [x16, #2160]
   3ae58:	9121c210 	add	x16, x16, #0x870
   3ae5c:	d61f0220 	br	x17

000000000003ae60 <apr_thread_rwlock_trywrlock@plt>:
   3ae60:	f0000430 	adrp	x16, c1000 <_DYNAMIC+0x188>
   3ae64:	f9443e11 	ldr	x17, [x16, #2168]
   3ae68:	9121e210 	add	x16, x16, #0x878
   3ae6c:	d61f0220 	br	x17

000000000003ae70 <apr_cstr_casecmp@plt>:
   3ae70:	f0000430 	adrp	x16, c1000 <_DYNAMIC+0x188>
   3ae74:	f9444211 	ldr	x17, [x16, #2176]
   3ae78:	91220210 	add	x16, x16, #0x880
   3ae7c:	d61f0220 	br	x17

000000000003ae80 <apr_xlate_conv_buffer@plt>:
   3ae80:	f0000430 	adrp	x16, c1000 <_DYNAMIC+0x188>
   3ae84:	f9444611 	ldr	x17, [x16, #2184]
   3ae88:	91222210 	add	x16, x16, #0x888
   3ae8c:	d61f0220 	br	x17

000000000003ae90 <apr_file_seek@plt>:
   3ae90:	f0000430 	adrp	x16, c1000 <_DYNAMIC+0x188>
   3ae94:	f9444a11 	ldr	x17, [x16, #2192]
   3ae98:	91224210 	add	x16, x16, #0x890
   3ae9c:	d61f0220 	br	x17

000000000003aea0 <malloc@plt>:
   3aea0:	f0000430 	adrp	x16, c1000 <_DYNAMIC+0x188>
   3aea4:	f9444e11 	ldr	x17, [x16, #2200]
   3aea8:	91226210 	add	x16, x16, #0x898
   3aeac:	d61f0220 	br	x17

000000000003aeb0 <apr_bucket_shared_split@plt>:
   3aeb0:	f0000430 	adrp	x16, c1000 <_DYNAMIC+0x188>
   3aeb4:	f9445211 	ldr	x17, [x16, #2208]
   3aeb8:	91228210 	add	x16, x16, #0x8a0
   3aebc:	d61f0220 	br	x17

000000000003aec0 <apr_os_imp_time_put@plt>:
   3aec0:	f0000430 	adrp	x16, c1000 <_DYNAMIC+0x188>
   3aec4:	f9445611 	ldr	x17, [x16, #2216]
   3aec8:	9122a210 	add	x16, x16, #0x8a8
   3aecc:	d61f0220 	br	x17

000000000003aed0 <apr_skiplist_peek@plt>:
   3aed0:	f0000430 	adrp	x16, c1000 <_DYNAMIC+0x188>
   3aed4:	f9445a11 	ldr	x17, [x16, #2224]
   3aed8:	9122c210 	add	x16, x16, #0x8b0
   3aedc:	d61f0220 	br	x17

000000000003aee0 <apr_shm_delete@plt>:
   3aee0:	f0000430 	adrp	x16, c1000 <_DYNAMIC+0x188>
   3aee4:	f9445e11 	ldr	x17, [x16, #2232]
   3aee8:	9122e210 	add	x16, x16, #0x8b8
   3aeec:	d61f0220 	br	x17

000000000003aef0 <setsockopt@plt>:
   3aef0:	f0000430 	adrp	x16, c1000 <_DYNAMIC+0x188>
   3aef4:	f9446211 	ldr	x17, [x16, #2240]
   3aef8:	91230210 	add	x16, x16, #0x8c0
   3aefc:	d61f0220 	br	x17

000000000003af00 <apr_procattr_limit_set@plt>:
   3af00:	f0000430 	adrp	x16, c1000 <_DYNAMIC+0x188>
   3af04:	f9446611 	ldr	x17, [x16, #2248]
   3af08:	91232210 	add	x16, x16, #0x8c8
   3af0c:	d61f0220 	br	x17

000000000003af10 <apr_file_write_full@plt>:
   3af10:	f0000430 	adrp	x16, c1000 <_DYNAMIC+0x188>
   3af14:	f9446a11 	ldr	x17, [x16, #2256]
   3af18:	91234210 	add	x16, x16, #0x8d0
   3af1c:	d61f0220 	br	x17

000000000003af20 <apr_pencode_base16@plt>:
   3af20:	f0000430 	adrp	x16, c1000 <_DYNAMIC+0x188>
   3af24:	f9446e11 	ldr	x17, [x16, #2264]
   3af28:	91236210 	add	x16, x16, #0x8d8
   3af2c:	d61f0220 	br	x17

000000000003af30 <apr_sockaddr_ip_get@plt>:
   3af30:	f0000430 	adrp	x16, c1000 <_DYNAMIC+0x188>
   3af34:	f9447211 	ldr	x17, [x16, #2272]
   3af38:	91238210 	add	x16, x16, #0x8e0
   3af3c:	d61f0220 	br	x17

000000000003af40 <apr_bucket_heap_make@plt>:
   3af40:	f0000430 	adrp	x16, c1000 <_DYNAMIC+0x188>
   3af44:	f9447611 	ldr	x17, [x16, #2280]
   3af48:	9123a210 	add	x16, x16, #0x8e8
   3af4c:	d61f0220 	br	x17

000000000003af50 <apr_time_exp_lt@plt>:
   3af50:	f0000430 	adrp	x16, c1000 <_DYNAMIC+0x188>
   3af54:	f9447a11 	ldr	x17, [x16, #2288]
   3af58:	9123c210 	add	x16, x16, #0x8f0
   3af5c:	d61f0220 	br	x17

000000000003af60 <apr_sdbm_store@plt>:
   3af60:	f0000430 	adrp	x16, c1000 <_DYNAMIC+0x188>
   3af64:	f9447e11 	ldr	x17, [x16, #2296]
   3af68:	9123e210 	add	x16, x16, #0x8f8
   3af6c:	d61f0220 	br	x17

000000000003af70 <apr_redis_getp@plt>:
   3af70:	f0000430 	adrp	x16, c1000 <_DYNAMIC+0x188>
   3af74:	f9448211 	ldr	x17, [x16, #2304]
   3af78:	91240210 	add	x16, x16, #0x900
   3af7c:	d61f0220 	br	x17

000000000003af80 <apr_optional_hook_get@plt>:
   3af80:	f0000430 	adrp	x16, c1000 <_DYNAMIC+0x188>
   3af84:	f9448611 	ldr	x17, [x16, #2312]
   3af88:	91242210 	add	x16, x16, #0x908
   3af8c:	d61f0220 	br	x17

000000000003af90 <apr_os_exp_time_get@plt>:
   3af90:	f0000430 	adrp	x16, c1000 <_DYNAMIC+0x188>
   3af94:	f9448a11 	ldr	x17, [x16, #2320]
   3af98:	91244210 	add	x16, x16, #0x910
   3af9c:	d61f0220 	br	x17

000000000003afa0 <apr_terminate2@plt>:
   3afa0:	f0000430 	adrp	x16, c1000 <_DYNAMIC+0x188>
   3afa4:	f9448e11 	ldr	x17, [x16, #2328]
   3afa8:	91246210 	add	x16, x16, #0x918
   3afac:	d61f0220 	br	x17

000000000003afb0 <apr_thread_once@plt>:
   3afb0:	f0000430 	adrp	x16, c1000 <_DYNAMIC+0x188>
   3afb4:	f9449211 	ldr	x17, [x16, #2336]
   3afb8:	91248210 	add	x16, x16, #0x920
   3afbc:	d61f0220 	br	x17

000000000003afc0 <apr_thread_pool_tasks_count@plt>:
   3afc0:	f0000430 	adrp	x16, c1000 <_DYNAMIC+0x188>
   3afc4:	f9449611 	ldr	x17, [x16, #2344]
   3afc8:	9124a210 	add	x16, x16, #0x928
   3afcc:	d61f0220 	br	x17

000000000003afd0 <apr_hook_sort_all@plt>:
   3afd0:	f0000430 	adrp	x16, c1000 <_DYNAMIC+0x188>
   3afd4:	f9449a11 	ldr	x17, [x16, #2352]
   3afd8:	9124c210 	add	x16, x16, #0x930
   3afdc:	d61f0220 	br	x17

000000000003afe0 <apr_vformatter@plt>:
   3afe0:	f0000430 	adrp	x16, c1000 <_DYNAMIC+0x188>
   3afe4:	f9449e11 	ldr	x17, [x16, #2360]
   3afe8:	9124e210 	add	x16, x16, #0x938
   3afec:	d61f0220 	br	x17

000000000003aff0 <apr_hash_overlay@plt>:
   3aff0:	f0000430 	adrp	x16, c1000 <_DYNAMIC+0x188>
   3aff4:	f944a211 	ldr	x17, [x16, #2368]
   3aff8:	91250210 	add	x16, x16, #0x940
   3affc:	d61f0220 	br	x17

000000000003b000 <apr_os_sock_make@plt>:
   3b000:	d0000430 	adrp	x16, c1000 <_DYNAMIC+0x188>
   3b004:	f944a611 	ldr	x17, [x16, #2376]
   3b008:	91252210 	add	x16, x16, #0x948
   3b00c:	d61f0220 	br	x17

000000000003b010 <apr_os_imp_time_get@plt>:
   3b010:	d0000430 	adrp	x16, c1000 <_DYNAMIC+0x188>
   3b014:	f944aa11 	ldr	x17, [x16, #2384]
   3b018:	91254210 	add	x16, x16, #0x950
   3b01c:	d61f0220 	br	x17

000000000003b020 <apr_dbd_pvselect@plt>:
   3b020:	d0000430 	adrp	x16, c1000 <_DYNAMIC+0x188>
   3b024:	f944ae11 	ldr	x17, [x16, #2392]
   3b028:	91256210 	add	x16, x16, #0x958
   3b02c:	d61f0220 	br	x17

000000000003b030 <apr_strftime@plt>:
   3b030:	d0000430 	adrp	x16, c1000 <_DYNAMIC+0x188>
   3b034:	f944b211 	ldr	x17, [x16, #2400]
   3b038:	91258210 	add	x16, x16, #0x960
   3b03c:	d61f0220 	br	x17

000000000003b040 <apr_socket_connect@plt>:
   3b040:	d0000430 	adrp	x16, c1000 <_DYNAMIC+0x188>
   3b044:	f944b611 	ldr	x17, [x16, #2408]
   3b048:	9125a210 	add	x16, x16, #0x968
   3b04c:	d61f0220 	br	x17

000000000003b050 <apr_thread_rwlock_create@plt>:
   3b050:	d0000430 	adrp	x16, c1000 <_DYNAMIC+0x188>
   3b054:	f944ba11 	ldr	x17, [x16, #2416]
   3b058:	9125c210 	add	x16, x16, #0x970
   3b05c:	d61f0220 	br	x17

000000000003b060 <apr_socket_send@plt>:
   3b060:	d0000430 	adrp	x16, c1000 <_DYNAMIC+0x188>
   3b064:	f944be11 	ldr	x17, [x16, #2424]
   3b068:	9125e210 	add	x16, x16, #0x978
   3b06c:	d61f0220 	br	x17

000000000003b070 <apr_pool_create_unmanaged_ex_debug@plt>:
   3b070:	d0000430 	adrp	x16, c1000 <_DYNAMIC+0x188>
   3b074:	f944c211 	ldr	x17, [x16, #2432]
   3b078:	91260210 	add	x16, x16, #0x980
   3b07c:	d61f0220 	br	x17

000000000003b080 <apr_xml_parser_feed@plt>:
   3b080:	d0000430 	adrp	x16, c1000 <_DYNAMIC+0x188>
   3b084:	f944c611 	ldr	x17, [x16, #2440]
   3b088:	91262210 	add	x16, x16, #0x988
   3b08c:	d61f0220 	br	x17

000000000003b090 <apr_brigade_vprintf@plt>:
   3b090:	d0000430 	adrp	x16, c1000 <_DYNAMIC+0x188>
   3b094:	f944ca11 	ldr	x17, [x16, #2448]
   3b098:	91264210 	add	x16, x16, #0x990
   3b09c:	d61f0220 	br	x17

000000000003b0a0 <apr_ltoa@plt>:
   3b0a0:	d0000430 	adrp	x16, c1000 <_DYNAMIC+0x188>
   3b0a4:	f944ce11 	ldr	x17, [x16, #2456]
   3b0a8:	91266210 	add	x16, x16, #0x998
   3b0ac:	d61f0220 	br	x17

000000000003b0b0 <apr_pollset_create@plt>:
   3b0b0:	d0000430 	adrp	x16, c1000 <_DYNAMIC+0x188>
   3b0b4:	f944d211 	ldr	x17, [x16, #2464]
   3b0b8:	91268210 	add	x16, x16, #0x9a0
   3b0bc:	d61f0220 	br	x17

000000000003b0c0 <apr_table_unset@plt>:
   3b0c0:	d0000430 	adrp	x16, c1000 <_DYNAMIC+0x188>
   3b0c4:	f944d611 	ldr	x17, [x16, #2472]
   3b0c8:	9126a210 	add	x16, x16, #0x9a8
   3b0cc:	d61f0220 	br	x17

000000000003b0d0 <apr_brigade_writev@plt>:
   3b0d0:	d0000430 	adrp	x16, c1000 <_DYNAMIC+0x188>
   3b0d4:	f944da11 	ldr	x17, [x16, #2480]
   3b0d8:	9126c210 	add	x16, x16, #0x9b0
   3b0dc:	d61f0220 	br	x17

000000000003b0e0 <apr_sha1_update_binary@plt>:
   3b0e0:	d0000430 	adrp	x16, c1000 <_DYNAMIC+0x188>
   3b0e4:	f944de11 	ldr	x17, [x16, #2488]
   3b0e8:	9126e210 	add	x16, x16, #0x9b8
   3b0ec:	d61f0220 	br	x17

000000000003b0f0 <apr_memcache_find_server@plt>:
   3b0f0:	d0000430 	adrp	x16, c1000 <_DYNAMIC+0x188>
   3b0f4:	f944e211 	ldr	x17, [x16, #2496]
   3b0f8:	91270210 	add	x16, x16, #0x9c0
   3b0fc:	d61f0220 	br	x17

000000000003b100 <apr_memcache_set@plt>:
   3b100:	d0000430 	adrp	x16, c1000 <_DYNAMIC+0x188>
   3b104:	f944e611 	ldr	x17, [x16, #2504]
   3b108:	91272210 	add	x16, x16, #0x9c8
   3b10c:	d61f0220 	br	x17

000000000003b110 <apr_md4_set_xlate@plt>:
   3b110:	d0000430 	adrp	x16, c1000 <_DYNAMIC+0x188>
   3b114:	f944ea11 	ldr	x17, [x16, #2512]
   3b118:	91274210 	add	x16, x16, #0x9d0
   3b11c:	d61f0220 	br	x17

000000000003b120 <apr_pool_cleanup_register@plt>:
   3b120:	d0000430 	adrp	x16, c1000 <_DYNAMIC+0x188>
   3b124:	f944ee11 	ldr	x17, [x16, #2520]
   3b128:	91276210 	add	x16, x16, #0x9d8
   3b12c:	d61f0220 	br	x17

000000000003b130 <apr_hash_this@plt>:
   3b130:	d0000430 	adrp	x16, c1000 <_DYNAMIC+0x188>
   3b134:	f944f211 	ldr	x17, [x16, #2528]
   3b138:	91278210 	add	x16, x16, #0x9e0
   3b13c:	d61f0220 	br	x17

000000000003b140 <apr_mcast_loopback@plt>:
   3b140:	d0000430 	adrp	x16, c1000 <_DYNAMIC+0x188>
   3b144:	f944f611 	ldr	x17, [x16, #2536]
   3b148:	9127a210 	add	x16, x16, #0x9e8
   3b14c:	d61f0220 	br	x17

000000000003b150 <apr_encode_base64_binary@plt>:
   3b150:	d0000430 	adrp	x16, c1000 <_DYNAMIC+0x188>
   3b154:	f944fa11 	ldr	x17, [x16, #2544]
   3b158:	9127c210 	add	x16, x16, #0x9f0
   3b15c:	d61f0220 	br	x17

000000000003b160 <apr_table_vdo@plt>:
   3b160:	d0000430 	adrp	x16, c1000 <_DYNAMIC+0x188>
   3b164:	f944fe11 	ldr	x17, [x16, #2552]
   3b168:	9127e210 	add	x16, x16, #0x9f8
   3b16c:	d61f0220 	br	x17

000000000003b170 <sigemptyset@plt>:
   3b170:	d0000430 	adrp	x16, c1000 <_DYNAMIC+0x188>
   3b174:	f9450211 	ldr	x17, [x16, #2560]
   3b178:	91280210 	add	x16, x16, #0xa00
   3b17c:	d61f0220 	br	x17

000000000003b180 <apr_shm_create_ex@plt>:
   3b180:	d0000430 	adrp	x16, c1000 <_DYNAMIC+0x188>
   3b184:	f9450611 	ldr	x17, [x16, #2568]
   3b188:	91282210 	add	x16, x16, #0xa08
   3b18c:	d61f0220 	br	x17

000000000003b190 <apr_thread_once_init@plt>:
   3b190:	d0000430 	adrp	x16, c1000 <_DYNAMIC+0x188>
   3b194:	f9450a11 	ldr	x17, [x16, #2576]
   3b198:	91284210 	add	x16, x16, #0xa10
   3b19c:	d61f0220 	br	x17

000000000003b1a0 <apr_table_clone@plt>:
   3b1a0:	d0000430 	adrp	x16, c1000 <_DYNAMIC+0x188>
   3b1a4:	f9450e11 	ldr	x17, [x16, #2584]
   3b1a8:	91286210 	add	x16, x16, #0xa18
   3b1ac:	d61f0220 	br	x17

000000000003b1b0 <apr_encode_base32@plt>:
   3b1b0:	d0000430 	adrp	x16, c1000 <_DYNAMIC+0x188>
   3b1b4:	f9451211 	ldr	x17, [x16, #2592]
   3b1b8:	91288210 	add	x16, x16, #0xa20
   3b1bc:	d61f0220 	br	x17

000000000003b1c0 <strncmp@plt>:
   3b1c0:	d0000430 	adrp	x16, c1000 <_DYNAMIC+0x188>
   3b1c4:	f9451611 	ldr	x17, [x16, #2600]
   3b1c8:	9128a210 	add	x16, x16, #0xa28
   3b1cc:	d61f0220 	br	x17

000000000003b1d0 <apr_shm_pool_get@plt>:
   3b1d0:	d0000430 	adrp	x16, c1000 <_DYNAMIC+0x188>
   3b1d4:	f9451a11 	ldr	x17, [x16, #2608]
   3b1d8:	9128c210 	add	x16, x16, #0xa30
   3b1dc:	d61f0220 	br	x17

000000000003b1e0 <apr_file_buffer_size_get@plt>:
   3b1e0:	d0000430 	adrp	x16, c1000 <_DYNAMIC+0x188>
   3b1e4:	f9451e11 	ldr	x17, [x16, #2616]
   3b1e8:	9128e210 	add	x16, x16, #0xa38
   3b1ec:	d61f0220 	br	x17

000000000003b1f0 <apr_thread_pool_task_owner_get@plt>:
   3b1f0:	d0000430 	adrp	x16, c1000 <_DYNAMIC+0x188>
   3b1f4:	f9452211 	ldr	x17, [x16, #2624]
   3b1f8:	91290210 	add	x16, x16, #0xa40
   3b1fc:	d61f0220 	br	x17

000000000003b200 <pcre_exec@plt>:
   3b200:	d0000430 	adrp	x16, c1000 <_DYNAMIC+0x188>
   3b204:	f9452611 	ldr	x17, [x16, #2632]
   3b208:	91292210 	add	x16, x16, #0xa48
   3b20c:	d61f0220 	br	x17

000000000003b210 <apr_pollcb_add@plt>:
   3b210:	d0000430 	adrp	x16, c1000 <_DYNAMIC+0x188>
   3b214:	f9452a11 	ldr	x17, [x16, #2640]
   3b218:	91294210 	add	x16, x16, #0xa50
   3b21c:	d61f0220 	br	x17

000000000003b220 <apr_dbd_native_handle@plt>:
   3b220:	d0000430 	adrp	x16, c1000 <_DYNAMIC+0x188>
   3b224:	f9452e11 	ldr	x17, [x16, #2648]
   3b228:	91296210 	add	x16, x16, #0xa58
   3b22c:	d61f0220 	br	x17

000000000003b230 <apr_pool_destroy_debug@plt>:
   3b230:	d0000430 	adrp	x16, c1000 <_DYNAMIC+0x188>
   3b234:	f9453211 	ldr	x17, [x16, #2656]
   3b238:	91298210 	add	x16, x16, #0xa60
   3b23c:	d61f0220 	br	x17

000000000003b240 <apr_dbd_name@plt>:
   3b240:	d0000430 	adrp	x16, c1000 <_DYNAMIC+0x188>
   3b244:	f9453611 	ldr	x17, [x16, #2664]
   3b248:	9129a210 	add	x16, x16, #0xa68
   3b24c:	d61f0220 	br	x17

000000000003b250 <apr_rmm_realloc@plt>:
   3b250:	d0000430 	adrp	x16, c1000 <_DYNAMIC+0x188>
   3b254:	f9453a11 	ldr	x17, [x16, #2672]
   3b258:	9129c210 	add	x16, x16, #0xa70
   3b25c:	d61f0220 	br	x17

000000000003b260 <apr_pollset_destroy@plt>:
   3b260:	d0000430 	adrp	x16, c1000 <_DYNAMIC+0x188>
   3b264:	f9453e11 	ldr	x17, [x16, #2680]
   3b268:	9129e210 	add	x16, x16, #0xa78
   3b26c:	d61f0220 	br	x17

000000000003b270 <apr_atomic_init@plt>:
   3b270:	d0000430 	adrp	x16, c1000 <_DYNAMIC+0x188>
   3b274:	f9454211 	ldr	x17, [x16, #2688]
   3b278:	912a0210 	add	x16, x16, #0xa80
   3b27c:	d61f0220 	br	x17

000000000003b280 <__libc_start_main@plt>:
   3b280:	d0000430 	adrp	x16, c1000 <_DYNAMIC+0x188>
   3b284:	f9454611 	ldr	x17, [x16, #2696]
   3b288:	912a2210 	add	x16, x16, #0xa88
   3b28c:	d61f0220 	br	x17

000000000003b290 <apr_table_overlap@plt>:
   3b290:	d0000430 	adrp	x16, c1000 <_DYNAMIC+0x188>
   3b294:	f9454a11 	ldr	x17, [x16, #2704]
   3b298:	912a4210 	add	x16, x16, #0xa90
   3b29c:	d61f0220 	br	x17

000000000003b2a0 <apr_hook_deregister_all@plt>:
   3b2a0:	d0000430 	adrp	x16, c1000 <_DYNAMIC+0x188>
   3b2a4:	f9454e11 	ldr	x17, [x16, #2712]
   3b2a8:	912a6210 	add	x16, x16, #0xa98
   3b2ac:	d61f0220 	br	x17

000000000003b2b0 <__printf_chk@plt>:
   3b2b0:	d0000430 	adrp	x16, c1000 <_DYNAMIC+0x188>
   3b2b4:	f9455211 	ldr	x17, [x16, #2720]
   3b2b8:	912a8210 	add	x16, x16, #0xaa0
   3b2bc:	d61f0220 	br	x17

000000000003b2c0 <apr_thread_cond_create@plt>:
   3b2c0:	d0000430 	adrp	x16, c1000 <_DYNAMIC+0x188>
   3b2c4:	f9455611 	ldr	x17, [x16, #2728]
   3b2c8:	912aa210 	add	x16, x16, #0xaa8
   3b2cc:	d61f0220 	br	x17

000000000003b2d0 <apr_bucket_immortal_make@plt>:
   3b2d0:	d0000430 	adrp	x16, c1000 <_DYNAMIC+0x188>
   3b2d4:	f9455a11 	ldr	x17, [x16, #2736]
   3b2d8:	912ac210 	add	x16, x16, #0xab0
   3b2dc:	d61f0220 	br	x17

000000000003b2e0 <apr_uri_unparse@plt>:
   3b2e0:	d0000430 	adrp	x16, c1000 <_DYNAMIC+0x188>
   3b2e4:	f9455e11 	ldr	x17, [x16, #2744]
   3b2e8:	912ae210 	add	x16, x16, #0xab8
   3b2ec:	d61f0220 	br	x17

000000000003b2f0 <memset@plt>:
   3b2f0:	d0000430 	adrp	x16, c1000 <_DYNAMIC+0x188>
   3b2f4:	f9456211 	ldr	x17, [x16, #2752]
   3b2f8:	912b0210 	add	x16, x16, #0xac0
   3b2fc:	d61f0220 	br	x17

000000000003b300 <apr_thread_mutex_destroy@plt>:
   3b300:	d0000430 	adrp	x16, c1000 <_DYNAMIC+0x188>
   3b304:	f9456611 	ldr	x17, [x16, #2760]
   3b308:	912b2210 	add	x16, x16, #0xac8
   3b30c:	d61f0220 	br	x17

000000000003b310 <apr_dbm_geterror@plt>:
   3b310:	d0000430 	adrp	x16, c1000 <_DYNAMIC+0x188>
   3b314:	f9456a11 	ldr	x17, [x16, #2768]
   3b318:	912b4210 	add	x16, x16, #0xad0
   3b31c:	d61f0220 	br	x17

000000000003b320 <apr_queue_size@plt>:
   3b320:	d0000430 	adrp	x16, c1000 <_DYNAMIC+0x188>
   3b324:	f9456e11 	ldr	x17, [x16, #2776]
   3b328:	912b6210 	add	x16, x16, #0xad8
   3b32c:	d61f0220 	br	x17

000000000003b330 <apr_bucket_destroy_noop@plt>:
   3b330:	d0000430 	adrp	x16, c1000 <_DYNAMIC+0x188>
   3b334:	f9457211 	ldr	x17, [x16, #2784]
   3b338:	912b8210 	add	x16, x16, #0xae0
   3b33c:	d61f0220 	br	x17

000000000003b340 <strpbrk@plt>:
   3b340:	d0000430 	adrp	x16, c1000 <_DYNAMIC+0x188>
   3b344:	f9457611 	ldr	x17, [x16, #2792]
   3b348:	912ba210 	add	x16, x16, #0xae8
   3b34c:	d61f0220 	br	x17

000000000003b350 <apr_allocator_mutex_set@plt>:
   3b350:	d0000430 	adrp	x16, c1000 <_DYNAMIC+0x188>
   3b354:	f9457a11 	ldr	x17, [x16, #2800]
   3b358:	912bc210 	add	x16, x16, #0xaf0
   3b35c:	d61f0220 	br	x17

000000000003b360 <apr_base64_decode@plt>:
   3b360:	d0000430 	adrp	x16, c1000 <_DYNAMIC+0x188>
   3b364:	f9457e11 	ldr	x17, [x16, #2808]
   3b368:	912be210 	add	x16, x16, #0xaf8
   3b36c:	d61f0220 	br	x17

000000000003b370 <apr_bucket_setaside_notimpl@plt>:
   3b370:	d0000430 	adrp	x16, c1000 <_DYNAMIC+0x188>
   3b374:	f9458211 	ldr	x17, [x16, #2816]
   3b378:	912c0210 	add	x16, x16, #0xb00
   3b37c:	d61f0220 	br	x17

000000000003b380 <getpwnam@plt>:
   3b380:	d0000430 	adrp	x16, c1000 <_DYNAMIC+0x188>
   3b384:	f9458611 	ldr	x17, [x16, #2824]
   3b388:	912c2210 	add	x16, x16, #0xb08
   3b38c:	d61f0220 	br	x17

000000000003b390 <apr_redis_find_server@plt>:
   3b390:	d0000430 	adrp	x16, c1000 <_DYNAMIC+0x188>
   3b394:	f9458a11 	ldr	x17, [x16, #2832]
   3b398:	912c4210 	add	x16, x16, #0xb10
   3b39c:	d61f0220 	br	x17

000000000003b3a0 <apr_palloc@plt>:
   3b3a0:	d0000430 	adrp	x16, c1000 <_DYNAMIC+0x188>
   3b3a4:	f9458e11 	ldr	x17, [x16, #2840]
   3b3a8:	912c6210 	add	x16, x16, #0xb18
   3b3ac:	d61f0220 	br	x17

000000000003b3b0 <apr_rmm_detach@plt>:
   3b3b0:	d0000430 	adrp	x16, c1000 <_DYNAMIC+0x188>
   3b3b4:	f9459211 	ldr	x17, [x16, #2848]
   3b3b8:	912c8210 	add	x16, x16, #0xb20
   3b3bc:	d61f0220 	br	x17

000000000003b3c0 <apr_brigade_destroy@plt>:
   3b3c0:	d0000430 	adrp	x16, c1000 <_DYNAMIC+0x188>
   3b3c4:	f9459611 	ldr	x17, [x16, #2856]
   3b3c8:	912ca210 	add	x16, x16, #0xb28
   3b3cc:	d61f0220 	br	x17

000000000003b3d0 <apr_thread_cond_wait@plt>:
   3b3d0:	d0000430 	adrp	x16, c1000 <_DYNAMIC+0x188>
   3b3d4:	f9459a11 	ldr	x17, [x16, #2864]
   3b3d8:	912cc210 	add	x16, x16, #0xb30
   3b3dc:	d61f0220 	br	x17

000000000003b3e0 <apr_pescape_entity@plt>:
   3b3e0:	d0000430 	adrp	x16, c1000 <_DYNAMIC+0x188>
   3b3e4:	f9459e11 	ldr	x17, [x16, #2872]
   3b3e8:	912ce210 	add	x16, x16, #0xb38
   3b3ec:	d61f0220 	br	x17

000000000003b3f0 <apr_skiplist_free@plt>:
   3b3f0:	d0000430 	adrp	x16, c1000 <_DYNAMIC+0x188>
   3b3f4:	f945a211 	ldr	x17, [x16, #2880]
   3b3f8:	912d0210 	add	x16, x16, #0xb40
   3b3fc:	d61f0220 	br	x17

000000000003b400 <apr_skiplist_replace@plt>:
   3b400:	d0000430 	adrp	x16, c1000 <_DYNAMIC+0x188>
   3b404:	f945a611 	ldr	x17, [x16, #2888]
   3b408:	912d2210 	add	x16, x16, #0xb48
   3b40c:	d61f0220 	br	x17

000000000003b410 <apr_poll@plt>:
   3b410:	d0000430 	adrp	x16, c1000 <_DYNAMIC+0x188>
   3b414:	f945aa11 	ldr	x17, [x16, #2896]
   3b418:	912d4210 	add	x16, x16, #0xb50
   3b41c:	d61f0220 	br	x17

000000000003b420 <apr_uid_get@plt>:
   3b420:	d0000430 	adrp	x16, c1000 <_DYNAMIC+0x188>
   3b424:	f945ae11 	ldr	x17, [x16, #2904]
   3b428:	912d6210 	add	x16, x16, #0xb58
   3b42c:	d61f0220 	br	x17

000000000003b430 <apr_memcache_incr@plt>:
   3b430:	d0000430 	adrp	x16, c1000 <_DYNAMIC+0x188>
   3b434:	f945b211 	ldr	x17, [x16, #2912]
   3b438:	912d8210 	add	x16, x16, #0xb60
   3b43c:	d61f0220 	br	x17

000000000003b440 <apu_version@plt>:
   3b440:	d0000430 	adrp	x16, c1000 <_DYNAMIC+0x188>
   3b444:	f945b611 	ldr	x17, [x16, #2920]
   3b448:	912da210 	add	x16, x16, #0xb68
   3b44c:	d61f0220 	br	x17

000000000003b450 <apr_filepath_set@plt>:
   3b450:	d0000430 	adrp	x16, c1000 <_DYNAMIC+0x188>
   3b454:	f945ba11 	ldr	x17, [x16, #2928]
   3b458:	912dc210 	add	x16, x16, #0xb70
   3b45c:	d61f0220 	br	x17

000000000003b460 <apr_memcache_decr@plt>:
   3b460:	d0000430 	adrp	x16, c1000 <_DYNAMIC+0x188>
   3b464:	f945be11 	ldr	x17, [x16, #2936]
   3b468:	912de210 	add	x16, x16, #0xb78
   3b46c:	d61f0220 	br	x17

000000000003b470 <apr_pollset_remove@plt>:
   3b470:	d0000430 	adrp	x16, c1000 <_DYNAMIC+0x188>
   3b474:	f945c211 	ldr	x17, [x16, #2944]
   3b478:	912e0210 	add	x16, x16, #0xb80
   3b47c:	d61f0220 	br	x17

000000000003b480 <apr_file_open_flags_stdin@plt>:
   3b480:	d0000430 	adrp	x16, c1000 <_DYNAMIC+0x188>
   3b484:	f945c611 	ldr	x17, [x16, #2952]
   3b488:	912e2210 	add	x16, x16, #0xb88
   3b48c:	d61f0220 	br	x17

000000000003b490 <apr_reslist_maintain@plt>:
   3b490:	d0000430 	adrp	x16, c1000 <_DYNAMIC+0x188>
   3b494:	f945ca11 	ldr	x17, [x16, #2960]
   3b498:	912e4210 	add	x16, x16, #0xb90
   3b49c:	d61f0220 	br	x17

000000000003b4a0 <apr_memcache_stats@plt>:
   3b4a0:	d0000430 	adrp	x16, c1000 <_DYNAMIC+0x188>
   3b4a4:	f945ce11 	ldr	x17, [x16, #2968]
   3b4a8:	912e6210 	add	x16, x16, #0xb98
   3b4ac:	d61f0220 	br	x17

000000000003b4b0 <apr_skiplist_preheight@plt>:
   3b4b0:	d0000430 	adrp	x16, c1000 <_DYNAMIC+0x188>
   3b4b4:	f945d211 	ldr	x17, [x16, #2976]
   3b4b8:	912e8210 	add	x16, x16, #0xba0
   3b4bc:	d61f0220 	br	x17

000000000003b4c0 <apr_shm_create@plt>:
   3b4c0:	d0000430 	adrp	x16, c1000 <_DYNAMIC+0x188>
   3b4c4:	f945d611 	ldr	x17, [x16, #2984]
   3b4c8:	912ea210 	add	x16, x16, #0xba8
   3b4cc:	d61f0220 	br	x17

000000000003b4d0 <apr_file_inherit_unset@plt>:
   3b4d0:	d0000430 	adrp	x16, c1000 <_DYNAMIC+0x188>
   3b4d4:	f945da11 	ldr	x17, [x16, #2992]
   3b4d8:	912ec210 	add	x16, x16, #0xbb0
   3b4dc:	d61f0220 	br	x17

000000000003b4e0 <apr_os_shm_get@plt>:
   3b4e0:	d0000430 	adrp	x16, c1000 <_DYNAMIC+0x188>
   3b4e4:	f945de11 	ldr	x17, [x16, #3000]
   3b4e8:	912ee210 	add	x16, x16, #0xbb8
   3b4ec:	d61f0220 	br	x17

000000000003b4f0 <apr_proc_wait_all_procs@plt>:
   3b4f0:	d0000430 	adrp	x16, c1000 <_DYNAMIC+0x188>
   3b4f4:	f945e211 	ldr	x17, [x16, #3008]
   3b4f8:	912f0210 	add	x16, x16, #0xbc0
   3b4fc:	d61f0220 	br	x17

000000000003b500 <apr_thread_pool_busy_count@plt>:
   3b500:	d0000430 	adrp	x16, c1000 <_DYNAMIC+0x188>
   3b504:	f945e611 	ldr	x17, [x16, #3016]
   3b508:	912f2210 	add	x16, x16, #0xbc8
   3b50c:	d61f0220 	br	x17

000000000003b510 <apr_encode_base64@plt>:
   3b510:	d0000430 	adrp	x16, c1000 <_DYNAMIC+0x188>
   3b514:	f945ea11 	ldr	x17, [x16, #3024]
   3b518:	912f4210 	add	x16, x16, #0xbd0
   3b51c:	d61f0220 	br	x17

000000000003b520 <apr_xml_parser_create@plt>:
   3b520:	d0000430 	adrp	x16, c1000 <_DYNAMIC+0x188>
   3b524:	f945ee11 	ldr	x17, [x16, #3032]
   3b528:	912f6210 	add	x16, x16, #0xbd8
   3b52c:	d61f0220 	br	x17

000000000003b530 <apr_dbd_transaction_mode_set@plt>:
   3b530:	d0000430 	adrp	x16, c1000 <_DYNAMIC+0x188>
   3b534:	f945f211 	ldr	x17, [x16, #3040]
   3b538:	912f8210 	add	x16, x16, #0xbe0
   3b53c:	d61f0220 	br	x17

000000000003b540 <apr_os_proc_mutex_put@plt>:
   3b540:	d0000430 	adrp	x16, c1000 <_DYNAMIC+0x188>
   3b544:	f945f611 	ldr	x17, [x16, #3048]
   3b548:	912fa210 	add	x16, x16, #0xbe8
   3b54c:	d61f0220 	br	x17

000000000003b550 <apr_os_proc_mutex_get_ex@plt>:
   3b550:	d0000430 	adrp	x16, c1000 <_DYNAMIC+0x188>
   3b554:	f945fa11 	ldr	x17, [x16, #3056]
   3b558:	912fc210 	add	x16, x16, #0xbf0
   3b55c:	d61f0220 	br	x17

000000000003b560 <apr_proc_mutex_destroy@plt>:
   3b560:	d0000430 	adrp	x16, c1000 <_DYNAMIC+0x188>
   3b564:	f945fe11 	ldr	x17, [x16, #3064]
   3b568:	912fe210 	add	x16, x16, #0xbf8
   3b56c:	d61f0220 	br	x17

000000000003b570 <apr_socket_accept@plt>:
   3b570:	d0000430 	adrp	x16, c1000 <_DYNAMIC+0x188>
   3b574:	f9460211 	ldr	x17, [x16, #3072]
   3b578:	91300210 	add	x16, x16, #0xc00
   3b57c:	d61f0220 	br	x17

000000000003b580 <apr_getnameinfo@plt>:
   3b580:	d0000430 	adrp	x16, c1000 <_DYNAMIC+0x188>
   3b584:	f9460611 	ldr	x17, [x16, #3080]
   3b588:	91302210 	add	x16, x16, #0xc08
   3b58c:	d61f0220 	br	x17

000000000003b590 <apr_thread_cond_pool_get@plt>:
   3b590:	d0000430 	adrp	x16, c1000 <_DYNAMIC+0x188>
   3b594:	f9460a11 	ldr	x17, [x16, #3088]
   3b598:	91304210 	add	x16, x16, #0xc10
   3b59c:	d61f0220 	br	x17

000000000003b5a0 <calloc@plt>:
   3b5a0:	d0000430 	adrp	x16, c1000 <_DYNAMIC+0x188>
   3b5a4:	f9460e11 	ldr	x17, [x16, #3096]
   3b5a8:	91306210 	add	x16, x16, #0xc18
   3b5ac:	d61f0220 	br	x17

000000000003b5b0 <apr_pstrcatv@plt>:
   3b5b0:	d0000430 	adrp	x16, c1000 <_DYNAMIC+0x188>
   3b5b4:	f9461211 	ldr	x17, [x16, #3104]
   3b5b8:	91308210 	add	x16, x16, #0xc20
   3b5bc:	d61f0220 	br	x17

000000000003b5c0 <apr_proc_mutex_create@plt>:
   3b5c0:	d0000430 	adrp	x16, c1000 <_DYNAMIC+0x188>
   3b5c4:	f9461611 	ldr	x17, [x16, #3112]
   3b5c8:	9130a210 	add	x16, x16, #0xc28
   3b5cc:	d61f0220 	br	x17

000000000003b5d0 <apr_redis_find_server_hash@plt>:
   3b5d0:	d0000430 	adrp	x16, c1000 <_DYNAMIC+0x188>
   3b5d4:	f9461a11 	ldr	x17, [x16, #3120]
   3b5d8:	9130c210 	add	x16, x16, #0xc30
   3b5dc:	d61f0220 	br	x17

000000000003b5e0 <apr_pool_userdata_get@plt>:
   3b5e0:	d0000430 	adrp	x16, c1000 <_DYNAMIC+0x188>
   3b5e4:	f9461e11 	ldr	x17, [x16, #3128]
   3b5e8:	9130e210 	add	x16, x16, #0xc38
   3b5ec:	d61f0220 	br	x17

000000000003b5f0 <apr_pescape_shell@plt>:
   3b5f0:	d0000430 	adrp	x16, c1000 <_DYNAMIC+0x188>
   3b5f4:	f9462211 	ldr	x17, [x16, #3136]
   3b5f8:	91310210 	add	x16, x16, #0xc40
   3b5fc:	d61f0220 	br	x17

000000000003b600 <apr_thread_rwlock_pool_get@plt>:
   3b600:	d0000430 	adrp	x16, c1000 <_DYNAMIC+0x188>
   3b604:	f9462611 	ldr	x17, [x16, #3144]
   3b608:	91312210 	add	x16, x16, #0xc48
   3b60c:	d61f0220 	br	x17

000000000003b610 <apr_socket_recv@plt>:
   3b610:	d0000430 	adrp	x16, c1000 <_DYNAMIC+0x188>
   3b614:	f9462a11 	ldr	x17, [x16, #3152]
   3b618:	91314210 	add	x16, x16, #0xc50
   3b61c:	d61f0220 	br	x17

000000000003b620 <apr_hook_debug_show@plt>:
   3b620:	d0000430 	adrp	x16, c1000 <_DYNAMIC+0x188>
   3b624:	f9462e11 	ldr	x17, [x16, #3160]
   3b628:	91316210 	add	x16, x16, #0xc58
   3b62c:	d61f0220 	br	x17

000000000003b630 <apr_file_writev@plt>:
   3b630:	d0000430 	adrp	x16, c1000 <_DYNAMIC+0x188>
   3b634:	f9463211 	ldr	x17, [x16, #3168]
   3b638:	91318210 	add	x16, x16, #0xc60
   3b63c:	d61f0220 	br	x17

000000000003b640 <apr_redis_info@plt>:
   3b640:	d0000430 	adrp	x16, c1000 <_DYNAMIC+0x188>
   3b644:	f9463611 	ldr	x17, [x16, #3176]
   3b648:	9131a210 	add	x16, x16, #0xc68
   3b64c:	d61f0220 	br	x17

000000000003b650 <apr_base64_decode_binary@plt>:
   3b650:	d0000430 	adrp	x16, c1000 <_DYNAMIC+0x188>
   3b654:	f9463a11 	ldr	x17, [x16, #3184]
   3b658:	9131c210 	add	x16, x16, #0xc70
   3b65c:	d61f0220 	br	x17

000000000003b660 <apr_vsnprintf@plt>:
   3b660:	d0000430 	adrp	x16, c1000 <_DYNAMIC+0x188>
   3b664:	f9463e11 	ldr	x17, [x16, #3192]
   3b668:	9131e210 	add	x16, x16, #0xc78
   3b66c:	d61f0220 	br	x17

000000000003b670 <apr_queue_push@plt>:
   3b670:	d0000430 	adrp	x16, c1000 <_DYNAMIC+0x188>
   3b674:	f9464211 	ldr	x17, [x16, #3200]
   3b678:	91320210 	add	x16, x16, #0xc80
   3b67c:	d61f0220 	br	x17

000000000003b680 <apr_proc_mutex_name@plt>:
   3b680:	d0000430 	adrp	x16, c1000 <_DYNAMIC+0x188>
   3b684:	f9464611 	ldr	x17, [x16, #3208]
   3b688:	91322210 	add	x16, x16, #0xc88
   3b68c:	d61f0220 	br	x17

000000000003b690 <apr_skiplist_add_compare@plt>:
   3b690:	d0000430 	adrp	x16, c1000 <_DYNAMIC+0x188>
   3b694:	f9464a11 	ldr	x17, [x16, #3216]
   3b698:	91324210 	add	x16, x16, #0xc90
   3b69c:	d61f0220 	br	x17

000000000003b6a0 <apr_bucket_free@plt>:
   3b6a0:	d0000430 	adrp	x16, c1000 <_DYNAMIC+0x188>
   3b6a4:	f9464e11 	ldr	x17, [x16, #3224]
   3b6a8:	91326210 	add	x16, x16, #0xc98
   3b6ac:	d61f0220 	br	x17

000000000003b6b0 <apr_redis_hash_crc32@plt>:
   3b6b0:	d0000430 	adrp	x16, c1000 <_DYNAMIC+0x188>
   3b6b4:	f9465211 	ldr	x17, [x16, #3232]
   3b6b8:	91328210 	add	x16, x16, #0xca0
   3b6bc:	d61f0220 	br	x17

000000000003b6c0 <apr_brigade_putc@plt>:
   3b6c0:	d0000430 	adrp	x16, c1000 <_DYNAMIC+0x188>
   3b6c4:	f9465611 	ldr	x17, [x16, #3240]
   3b6c8:	9132a210 	add	x16, x16, #0xca8
   3b6cc:	d61f0220 	br	x17

000000000003b6d0 <apr_memcache_delete@plt>:
   3b6d0:	d0000430 	adrp	x16, c1000 <_DYNAMIC+0x188>
   3b6d4:	f9465a11 	ldr	x17, [x16, #3248]
   3b6d8:	9132c210 	add	x16, x16, #0xcb0
   3b6dc:	d61f0220 	br	x17

000000000003b6e0 <apr_thread_mutex_timedlock@plt>:
   3b6e0:	d0000430 	adrp	x16, c1000 <_DYNAMIC+0x188>
   3b6e4:	f9465e11 	ldr	x17, [x16, #3256]
   3b6e8:	9132e210 	add	x16, x16, #0xcb8
   3b6ec:	d61f0220 	br	x17

000000000003b6f0 <apr_tokenize_to_argv@plt>:
   3b6f0:	d0000430 	adrp	x16, c1000 <_DYNAMIC+0x188>
   3b6f4:	f9466211 	ldr	x17, [x16, #3264]
   3b6f8:	91330210 	add	x16, x16, #0xcc0
   3b6fc:	d61f0220 	br	x17

000000000003b700 <apr_brigade_insert_file@plt>:
   3b700:	d0000430 	adrp	x16, c1000 <_DYNAMIC+0x188>
   3b704:	f9466611 	ldr	x17, [x16, #3272]
   3b708:	91332210 	add	x16, x16, #0xcc8
   3b70c:	d61f0220 	br	x17

000000000003b710 <apr_skiplist_remove_node@plt>:
   3b710:	d0000430 	adrp	x16, c1000 <_DYNAMIC+0x188>
   3b714:	f9466a11 	ldr	x17, [x16, #3280]
   3b718:	91334210 	add	x16, x16, #0xcd0
   3b71c:	d61f0220 	br	x17

000000000003b720 <apr_password_get@plt>:
   3b720:	d0000430 	adrp	x16, c1000 <_DYNAMIC+0x188>
   3b724:	f9466e11 	ldr	x17, [x16, #3288]
   3b728:	91336210 	add	x16, x16, #0xcd8
   3b72c:	d61f0220 	br	x17

000000000003b730 <strcasecmp@plt>:
   3b730:	d0000430 	adrp	x16, c1000 <_DYNAMIC+0x188>
   3b734:	f9467211 	ldr	x17, [x16, #3296]
   3b738:	91338210 	add	x16, x16, #0xce0
   3b73c:	d61f0220 	br	x17

000000000003b740 <apr_brigade_flatten@plt>:
   3b740:	d0000430 	adrp	x16, c1000 <_DYNAMIC+0x188>
   3b744:	f9467611 	ldr	x17, [x16, #3304]
   3b748:	9133a210 	add	x16, x16, #0xce8
   3b74c:	d61f0220 	br	x17

000000000003b750 <realloc@plt>:
   3b750:	d0000430 	adrp	x16, c1000 <_DYNAMIC+0x188>
   3b754:	f9467a11 	ldr	x17, [x16, #3312]
   3b758:	9133c210 	add	x16, x16, #0xcf0
   3b75c:	d61f0220 	br	x17

000000000003b760 <apr_sha1_final@plt>:
   3b760:	d0000430 	adrp	x16, c1000 <_DYNAMIC+0x188>
   3b764:	f9467e11 	ldr	x17, [x16, #3320]
   3b768:	9133e210 	add	x16, x16, #0xcf8
   3b76c:	d61f0220 	br	x17

000000000003b770 <apr_thread_mutex_lock@plt>:
   3b770:	d0000430 	adrp	x16, c1000 <_DYNAMIC+0x188>
   3b774:	f9468211 	ldr	x17, [x16, #3328]
   3b778:	91340210 	add	x16, x16, #0xd00
   3b77c:	d61f0220 	br	x17

000000000003b780 <apr_atomic_inc64@plt>:
   3b780:	d0000430 	adrp	x16, c1000 <_DYNAMIC+0x188>
   3b784:	f9468611 	ldr	x17, [x16, #3336]
   3b788:	91342210 	add	x16, x16, #0xd08
   3b78c:	d61f0220 	br	x17

000000000003b790 <apr_brigade_create@plt>:
   3b790:	d0000430 	adrp	x16, c1000 <_DYNAMIC+0x188>
   3b794:	f9468a11 	ldr	x17, [x16, #3344]
   3b798:	91344210 	add	x16, x16, #0xd10
   3b79c:	d61f0220 	br	x17

000000000003b7a0 <__ctype_toupper_loc@plt>:
   3b7a0:	d0000430 	adrp	x16, c1000 <_DYNAMIC+0x188>
   3b7a4:	f9468e11 	ldr	x17, [x16, #3352]
   3b7a8:	91346210 	add	x16, x16, #0xd18
   3b7ac:	d61f0220 	br	x17

000000000003b7b0 <apr_uid_current@plt>:
   3b7b0:	d0000430 	adrp	x16, c1000 <_DYNAMIC+0x188>
   3b7b4:	f9469211 	ldr	x17, [x16, #3360]
   3b7b8:	91348210 	add	x16, x16, #0xd20
   3b7bc:	d61f0220 	br	x17

000000000003b7c0 <apr_atomic_cas32@plt>:
   3b7c0:	d0000430 	adrp	x16, c1000 <_DYNAMIC+0x188>
   3b7c4:	f9469611 	ldr	x17, [x16, #3368]
   3b7c8:	9134a210 	add	x16, x16, #0xd28
   3b7cc:	d61f0220 	br	x17

000000000003b7d0 <apr_file_read@plt>:
   3b7d0:	d0000430 	adrp	x16, c1000 <_DYNAMIC+0x188>
   3b7d4:	f9469a11 	ldr	x17, [x16, #3376]
   3b7d8:	9134c210 	add	x16, x16, #0xd30
   3b7dc:	d61f0220 	br	x17

000000000003b7e0 <apr_array_append@plt>:
   3b7e0:	d0000430 	adrp	x16, c1000 <_DYNAMIC+0x188>
   3b7e4:	f9469e11 	ldr	x17, [x16, #3384]
   3b7e8:	9134e210 	add	x16, x16, #0xd38
   3b7ec:	d61f0220 	br	x17

000000000003b7f0 <apr_thread_pool_idle_max_get@plt>:
   3b7f0:	d0000430 	adrp	x16, c1000 <_DYNAMIC+0x188>
   3b7f4:	f946a211 	ldr	x17, [x16, #3392]
   3b7f8:	91350210 	add	x16, x16, #0xd40
   3b7fc:	d61f0220 	br	x17

000000000003b800 <apr_uri_port_of_scheme@plt>:
   3b800:	d0000430 	adrp	x16, c1000 <_DYNAMIC+0x188>
   3b804:	f946a611 	ldr	x17, [x16, #3400]
   3b808:	91352210 	add	x16, x16, #0xd48
   3b80c:	d61f0220 	br	x17

000000000003b810 <apr_table_mergen@plt>:
   3b810:	d0000430 	adrp	x16, c1000 <_DYNAMIC+0x188>
   3b814:	f946aa11 	ldr	x17, [x16, #3408]
   3b818:	91354210 	add	x16, x16, #0xd50
   3b81c:	d61f0220 	br	x17

000000000003b820 <apr_cstr_atoui@plt>:
   3b820:	d0000430 	adrp	x16, c1000 <_DYNAMIC+0x188>
   3b824:	f946ae11 	ldr	x17, [x16, #3416]
   3b828:	91356210 	add	x16, x16, #0xd58
   3b82c:	d61f0220 	br	x17

000000000003b830 <apr_shm_attach_ex@plt>:
   3b830:	d0000430 	adrp	x16, c1000 <_DYNAMIC+0x188>
   3b834:	f946b211 	ldr	x17, [x16, #3424]
   3b838:	91358210 	add	x16, x16, #0xd60
   3b83c:	d61f0220 	br	x17

000000000003b840 <pcre_fullinfo@plt>:
   3b840:	d0000430 	adrp	x16, c1000 <_DYNAMIC+0x188>
   3b844:	f946b611 	ldr	x17, [x16, #3432]
   3b848:	9135a210 	add	x16, x16, #0xd68
   3b84c:	d61f0220 	br	x17

000000000003b850 <apr_procattr_child_err_set@plt>:
   3b850:	d0000430 	adrp	x16, c1000 <_DYNAMIC+0x188>
   3b854:	f946ba11 	ldr	x17, [x16, #3440]
   3b858:	9135c210 	add	x16, x16, #0xd70
   3b85c:	d61f0220 	br	x17

000000000003b860 <apr_allocator_owner_get@plt>:
   3b860:	d0000430 	adrp	x16, c1000 <_DYNAMIC+0x188>
   3b864:	f946be11 	ldr	x17, [x16, #3448]
   3b868:	9135e210 	add	x16, x16, #0xd78
   3b86c:	d61f0220 	br	x17

000000000003b870 <apr_redis_stats@plt>:
   3b870:	d0000430 	adrp	x16, c1000 <_DYNAMIC+0x188>
   3b874:	f946c211 	ldr	x17, [x16, #3456]
   3b878:	91360210 	add	x16, x16, #0xd80
   3b87c:	d61f0220 	br	x17

000000000003b880 <apr_xml_parser_geterror@plt>:
   3b880:	d0000430 	adrp	x16, c1000 <_DYNAMIC+0x188>
   3b884:	f946c611 	ldr	x17, [x16, #3464]
   3b888:	91362210 	add	x16, x16, #0xd88
   3b88c:	d61f0220 	br	x17

000000000003b890 <__stack_chk_fail@plt>:
   3b890:	d0000430 	adrp	x16, c1000 <_DYNAMIC+0x188>
   3b894:	f946ca11 	ldr	x17, [x16, #3472]
   3b898:	91364210 	add	x16, x16, #0xd90
   3b89c:	d61f0220 	br	x17

000000000003b8a0 <apr_cstr_strtoi64@plt>:
   3b8a0:	d0000430 	adrp	x16, c1000 <_DYNAMIC+0x188>
   3b8a4:	f946ce11 	ldr	x17, [x16, #3480]
   3b8a8:	91366210 	add	x16, x16, #0xd98
   3b8ac:	d61f0220 	br	x17

000000000003b8b0 <apr_queue_create@plt>:
   3b8b0:	d0000430 	adrp	x16, c1000 <_DYNAMIC+0x188>
   3b8b4:	f946d211 	ldr	x17, [x16, #3488]
   3b8b8:	91368210 	add	x16, x16, #0xda0
   3b8bc:	d61f0220 	br	x17

000000000003b8c0 <apr_dbm_freedatum@plt>:
   3b8c0:	d0000430 	adrp	x16, c1000 <_DYNAMIC+0x188>
   3b8c4:	f946d611 	ldr	x17, [x16, #3496]
   3b8c8:	9136a210 	add	x16, x16, #0xda8
   3b8cc:	d61f0220 	br	x17

000000000003b8d0 <apr_thread_detach@plt>:
   3b8d0:	d0000430 	adrp	x16, c1000 <_DYNAMIC+0x188>
   3b8d4:	f946da11 	ldr	x17, [x16, #3504]
   3b8d8:	9136c210 	add	x16, x16, #0xdb0
   3b8dc:	d61f0220 	br	x17

000000000003b8e0 <apr_filepath_encoding@plt>:
   3b8e0:	d0000430 	adrp	x16, c1000 <_DYNAMIC+0x188>
   3b8e4:	f946de11 	ldr	x17, [x16, #3512]
   3b8e8:	9136e210 	add	x16, x16, #0xdb8
   3b8ec:	d61f0220 	br	x17

000000000003b8f0 <sigaction@plt>:
   3b8f0:	d0000430 	adrp	x16, c1000 <_DYNAMIC+0x188>
   3b8f4:	f946e211 	ldr	x17, [x16, #3520]
   3b8f8:	91370210 	add	x16, x16, #0xdc0
   3b8fc:	d61f0220 	br	x17

000000000003b900 <apr_skiplist_element@plt>:
   3b900:	d0000430 	adrp	x16, c1000 <_DYNAMIC+0x188>
   3b904:	f946e611 	ldr	x17, [x16, #3528]
   3b908:	91372210 	add	x16, x16, #0xdc8
   3b90c:	d61f0220 	br	x17

000000000003b910 <apr_thread_pool_schedule@plt>:
   3b910:	d0000430 	adrp	x16, c1000 <_DYNAMIC+0x188>
   3b914:	f946ea11 	ldr	x17, [x16, #3536]
   3b918:	91374210 	add	x16, x16, #0xdd0
   3b91c:	d61f0220 	br	x17

000000000003b920 <strrchr@plt>:
   3b920:	d0000430 	adrp	x16, c1000 <_DYNAMIC+0x188>
   3b924:	f946ee11 	ldr	x17, [x16, #3544]
   3b928:	91376210 	add	x16, x16, #0xdd8
   3b92c:	d61f0220 	br	x17

000000000003b930 <apr_pool_create_unmanaged_ex@plt>:
   3b930:	d0000430 	adrp	x16, c1000 <_DYNAMIC+0x188>
   3b934:	f946f211 	ldr	x17, [x16, #3552]
   3b938:	91378210 	add	x16, x16, #0xde0
   3b93c:	d61f0220 	br	x17

000000000003b940 <apr_pool_userdata_setn@plt>:
   3b940:	d0000430 	adrp	x16, c1000 <_DYNAMIC+0x188>
   3b944:	f946f611 	ldr	x17, [x16, #3560]
   3b948:	9137a210 	add	x16, x16, #0xde8
   3b94c:	d61f0220 	br	x17

000000000003b950 <apr_dir_remove@plt>:
   3b950:	d0000430 	adrp	x16, c1000 <_DYNAMIC+0x188>
   3b954:	f946fa11 	ldr	x17, [x16, #3568]
   3b958:	9137c210 	add	x16, x16, #0xdf0
   3b95c:	d61f0220 	br	x17

000000000003b960 <apr_threadattr_detach_get@plt>:
   3b960:	d0000430 	adrp	x16, c1000 <_DYNAMIC+0x188>
   3b964:	f946fe11 	ldr	x17, [x16, #3576]
   3b968:	9137e210 	add	x16, x16, #0xdf8
   3b96c:	d61f0220 	br	x17

000000000003b970 <apr_proc_other_child_refresh@plt>:
   3b970:	d0000430 	adrp	x16, c1000 <_DYNAMIC+0x188>
   3b974:	f9470211 	ldr	x17, [x16, #3584]
   3b978:	91380210 	add	x16, x16, #0xe00
   3b97c:	d61f0220 	br	x17

000000000003b980 <apr_socket_data_get@plt>:
   3b980:	d0000430 	adrp	x16, c1000 <_DYNAMIC+0x188>
   3b984:	f9470611 	ldr	x17, [x16, #3592]
   3b988:	91382210 	add	x16, x16, #0xe08
   3b98c:	d61f0220 	br	x17

000000000003b990 <apr_memcache_hash@plt>:
   3b990:	d0000430 	adrp	x16, c1000 <_DYNAMIC+0x188>
   3b994:	f9470a11 	ldr	x17, [x16, #3600]
   3b998:	91384210 	add	x16, x16, #0xe10
   3b99c:	d61f0220 	br	x17

000000000003b9a0 <apr_crypto_sha256_new@plt>:
   3b9a0:	d0000430 	adrp	x16, c1000 <_DYNAMIC+0x188>
   3b9a4:	f9470e11 	ldr	x17, [x16, #3608]
   3b9a8:	91386210 	add	x16, x16, #0xe18
   3b9ac:	d61f0220 	br	x17

000000000003b9b0 <__gmon_start__@plt>:
   3b9b0:	d0000430 	adrp	x16, c1000 <_DYNAMIC+0x188>
   3b9b4:	f9471211 	ldr	x17, [x16, #3616]
   3b9b8:	91388210 	add	x16, x16, #0xe20
   3b9bc:	d61f0220 	br	x17

000000000003b9c0 <apr_hash_do@plt>:
   3b9c0:	d0000430 	adrp	x16, c1000 <_DYNAMIC+0x188>
   3b9c4:	f9471611 	ldr	x17, [x16, #3624]
   3b9c8:	9138a210 	add	x16, x16, #0xe28
   3b9cc:	d61f0220 	br	x17

000000000003b9d0 <apr_uuid_parse@plt>:
   3b9d0:	d0000430 	adrp	x16, c1000 <_DYNAMIC+0x188>
   3b9d4:	f9471a11 	ldr	x17, [x16, #3632]
   3b9d8:	9138c210 	add	x16, x16, #0xe30
   3b9dc:	d61f0220 	br	x17

000000000003b9e0 <apr_sha1_base64@plt>:
   3b9e0:	d0000430 	adrp	x16, c1000 <_DYNAMIC+0x188>
   3b9e4:	f9471e11 	ldr	x17, [x16, #3640]
   3b9e8:	9138e210 	add	x16, x16, #0xe38
   3b9ec:	d61f0220 	br	x17

000000000003b9f0 <apr_allocator_max_free_set@plt>:
   3b9f0:	d0000430 	adrp	x16, c1000 <_DYNAMIC+0x188>
   3b9f4:	f9472211 	ldr	x17, [x16, #3648]
   3b9f8:	91390210 	add	x16, x16, #0xe40
   3b9fc:	d61f0220 	br	x17

000000000003ba00 <write@plt>:
   3ba00:	d0000430 	adrp	x16, c1000 <_DYNAMIC+0x188>
   3ba04:	f9472611 	ldr	x17, [x16, #3656]
   3ba08:	91392210 	add	x16, x16, #0xe48
   3ba0c:	d61f0220 	br	x17

000000000003ba10 <apr_bucket_eos_make@plt>:
   3ba10:	d0000430 	adrp	x16, c1000 <_DYNAMIC+0x188>
   3ba14:	f9472a11 	ldr	x17, [x16, #3664]
   3ba18:	91394210 	add	x16, x16, #0xe50
   3ba1c:	d61f0220 	br	x17

000000000003ba20 <apr_memcache_multgetp@plt>:
   3ba20:	d0000430 	adrp	x16, c1000 <_DYNAMIC+0x188>
   3ba24:	f9472e11 	ldr	x17, [x16, #3672]
   3ba28:	91396210 	add	x16, x16, #0xe58
   3ba2c:	d61f0220 	br	x17

000000000003ba30 <apr_os_global_mutex_get@plt>:
   3ba30:	d0000430 	adrp	x16, c1000 <_DYNAMIC+0x188>
   3ba34:	f9473211 	ldr	x17, [x16, #3680]
   3ba38:	91398210 	add	x16, x16, #0xe60
   3ba3c:	d61f0220 	br	x17

000000000003ba40 <apr_file_lock@plt>:
   3ba40:	d0000430 	adrp	x16, c1000 <_DYNAMIC+0x188>
   3ba44:	f9473611 	ldr	x17, [x16, #3688]
   3ba48:	9139a210 	add	x16, x16, #0xe68
   3ba4c:	d61f0220 	br	x17

000000000003ba50 <apr_md4@plt>:
   3ba50:	d0000430 	adrp	x16, c1000 <_DYNAMIC+0x188>
   3ba54:	f9473a11 	ldr	x17, [x16, #3696]
   3ba58:	9139c210 	add	x16, x16, #0xe70
   3ba5c:	d61f0220 	br	x17

000000000003ba60 <apr_table_setn@plt>:
   3ba60:	d0000430 	adrp	x16, c1000 <_DYNAMIC+0x188>
   3ba64:	f9473e11 	ldr	x17, [x16, #3704]
   3ba68:	9139e210 	add	x16, x16, #0xe78
   3ba6c:	d61f0220 	br	x17

000000000003ba70 <apr_uuid_get@plt>:
   3ba70:	d0000430 	adrp	x16, c1000 <_DYNAMIC+0x188>
   3ba74:	f9474211 	ldr	x17, [x16, #3712]
   3ba78:	913a0210 	add	x16, x16, #0xe80
   3ba7c:	d61f0220 	br	x17

000000000003ba80 <apr_file_close@plt>:
   3ba80:	d0000430 	adrp	x16, c1000 <_DYNAMIC+0x188>
   3ba84:	f9474611 	ldr	x17, [x16, #3720]
   3ba88:	913a2210 	add	x16, x16, #0xe88
   3ba8c:	d61f0220 	br	x17

000000000003ba90 <apr_brigade_split_line@plt>:
   3ba90:	d0000430 	adrp	x16, c1000 <_DYNAMIC+0x188>
   3ba94:	f9474a11 	ldr	x17, [x16, #3728]
   3ba98:	913a4210 	add	x16, x16, #0xe90
   3ba9c:	d61f0220 	br	x17

000000000003baa0 <apr_dir_read@plt>:
   3baa0:	d0000430 	adrp	x16, c1000 <_DYNAMIC+0x188>
   3baa4:	f9474e11 	ldr	x17, [x16, #3736]
   3baa8:	913a6210 	add	x16, x16, #0xe98
   3baac:	d61f0220 	br	x17

000000000003bab0 <apr_pollcb_method_name@plt>:
   3bab0:	d0000430 	adrp	x16, c1000 <_DYNAMIC+0x188>
   3bab4:	f9475211 	ldr	x17, [x16, #3744]
   3bab8:	913a8210 	add	x16, x16, #0xea0
   3babc:	d61f0220 	br	x17

000000000003bac0 <apr_file_attrs_set@plt>:
   3bac0:	d0000430 	adrp	x16, c1000 <_DYNAMIC+0x188>
   3bac4:	f9475611 	ldr	x17, [x16, #3752]
   3bac8:	913aa210 	add	x16, x16, #0xea8
   3bacc:	d61f0220 	br	x17

000000000003bad0 <apr_skiplist_last_compare@plt>:
   3bad0:	d0000430 	adrp	x16, c1000 <_DYNAMIC+0x188>
   3bad4:	f9475a11 	ldr	x17, [x16, #3760]
   3bad8:	913ac210 	add	x16, x16, #0xeb0
   3badc:	d61f0220 	br	x17

000000000003bae0 <abort@plt>:
   3bae0:	d0000430 	adrp	x16, c1000 <_DYNAMIC+0x188>
   3bae4:	f9475e11 	ldr	x17, [x16, #3768]
   3bae8:	913ae210 	add	x16, x16, #0xeb8
   3baec:	d61f0220 	br	x17

000000000003baf0 <apr_atomic_add32@plt>:
   3baf0:	d0000430 	adrp	x16, c1000 <_DYNAMIC+0x188>
   3baf4:	f9476211 	ldr	x17, [x16, #3776]
   3baf8:	913b0210 	add	x16, x16, #0xec0
   3bafc:	d61f0220 	br	x17

000000000003bb00 <apr_dbd_open_ex@plt>:
   3bb00:	d0000430 	adrp	x16, c1000 <_DYNAMIC+0x188>
   3bb04:	f9476611 	ldr	x17, [x16, #3784]
   3bb08:	913b2210 	add	x16, x16, #0xec8
   3bb0c:	d61f0220 	br	x17

000000000003bb10 <apr_filepath_list_merge@plt>:
   3bb10:	d0000430 	adrp	x16, c1000 <_DYNAMIC+0x188>
   3bb14:	f9476a11 	ldr	x17, [x16, #3792]
   3bb18:	913b4210 	add	x16, x16, #0xed0
   3bb1c:	d61f0220 	br	x17

000000000003bb20 <apr_procattr_io_set@plt>:
   3bb20:	d0000430 	adrp	x16, c1000 <_DYNAMIC+0x188>
   3bb24:	f9476e11 	ldr	x17, [x16, #3800]
   3bb28:	913b6210 	add	x16, x16, #0xed8
   3bb2c:	d61f0220 	br	x17

000000000003bb30 <openlog@plt>:
   3bb30:	d0000430 	adrp	x16, c1000 <_DYNAMIC+0x188>
   3bb34:	f9477211 	ldr	x17, [x16, #3808]
   3bb38:	913b8210 	add	x16, x16, #0xee0
   3bb3c:	d61f0220 	br	x17

000000000003bb40 <apr_mcast_hops@plt>:
   3bb40:	d0000430 	adrp	x16, c1000 <_DYNAMIC+0x188>
   3bb44:	f9477611 	ldr	x17, [x16, #3816]
   3bb48:	913ba210 	add	x16, x16, #0xee8
   3bb4c:	d61f0220 	br	x17

000000000003bb50 <apr_dbd_transaction_start@plt>:
   3bb50:	d0000430 	adrp	x16, c1000 <_DYNAMIC+0x188>
   3bb54:	f9477a11 	ldr	x17, [x16, #3824]
   3bb58:	913bc210 	add	x16, x16, #0xef0
   3bb5c:	d61f0220 	br	x17

000000000003bb60 <apr_signal_description_get@plt>:
   3bb60:	d0000430 	adrp	x16, c1000 <_DYNAMIC+0x188>
   3bb64:	f9477e11 	ldr	x17, [x16, #3832]
   3bb68:	913be210 	add	x16, x16, #0xef8
   3bb6c:	d61f0220 	br	x17

000000000003bb70 <apr_env_delete@plt>:
   3bb70:	d0000430 	adrp	x16, c1000 <_DYNAMIC+0x188>
   3bb74:	f9478211 	ldr	x17, [x16, #3840]
   3bb78:	913c0210 	add	x16, x16, #0xf00
   3bb7c:	d61f0220 	br	x17

000000000003bb80 <apr_signal_unblock@plt>:
   3bb80:	d0000430 	adrp	x16, c1000 <_DYNAMIC+0x188>
   3bb84:	f9478611 	ldr	x17, [x16, #3848]
   3bb88:	913c2210 	add	x16, x16, #0xf08
   3bb8c:	d61f0220 	br	x17

000000000003bb90 <apr_pool_allocator_get@plt>:
   3bb90:	d0000430 	adrp	x16, c1000 <_DYNAMIC+0x188>
   3bb94:	f9478a11 	ldr	x17, [x16, #3856]
   3bb98:	913c4210 	add	x16, x16, #0xf10
   3bb9c:	d61f0220 	br	x17

000000000003bba0 <apr_rmm_overhead_get@plt>:
   3bba0:	d0000430 	adrp	x16, c1000 <_DYNAMIC+0x188>
   3bba4:	f9478e11 	ldr	x17, [x16, #3864]
   3bba8:	913c6210 	add	x16, x16, #0xf18
   3bbac:	d61f0220 	br	x17

000000000003bbb0 <apr_procattr_child_in_set@plt>:
   3bbb0:	d0000430 	adrp	x16, c1000 <_DYNAMIC+0x188>
   3bbb4:	f9479211 	ldr	x17, [x16, #3872]
   3bbb8:	913c8210 	add	x16, x16, #0xf20
   3bbbc:	d61f0220 	br	x17

000000000003bbc0 <apr_redis_hash@plt>:
   3bbc0:	d0000430 	adrp	x16, c1000 <_DYNAMIC+0x188>
   3bbc4:	f9479611 	ldr	x17, [x16, #3880]
   3bbc8:	913ca210 	add	x16, x16, #0xf28
   3bbcc:	d61f0220 	br	x17

000000000003bbd0 <apr_dbd_pbselect@plt>:
   3bbd0:	d0000430 	adrp	x16, c1000 <_DYNAMIC+0x188>
   3bbd4:	f9479a11 	ldr	x17, [x16, #3888]
   3bbd8:	913cc210 	add	x16, x16, #0xf30
   3bbdc:	d61f0220 	br	x17

000000000003bbe0 <apr_dir_rewind@plt>:
   3bbe0:	d0000430 	adrp	x16, c1000 <_DYNAMIC+0x188>
   3bbe4:	f9479e11 	ldr	x17, [x16, #3896]
   3bbe8:	913ce210 	add	x16, x16, #0xf38
   3bbec:	d61f0220 	br	x17

000000000003bbf0 <apr_skiplist_add@plt>:
   3bbf0:	d0000430 	adrp	x16, c1000 <_DYNAMIC+0x188>
   3bbf4:	f947a211 	ldr	x17, [x16, #3904]
   3bbf8:	913d0210 	add	x16, x16, #0xf40
   3bbfc:	d61f0220 	br	x17

000000000003bc00 <apr_dbm_close@plt>:
   3bc00:	d0000430 	adrp	x16, c1000 <_DYNAMIC+0x188>
   3bc04:	f947a611 	ldr	x17, [x16, #3912]
   3bc08:	913d2210 	add	x16, x16, #0xf48
   3bc0c:	d61f0220 	br	x17

000000000003bc10 <apr_proc_mutex_lock@plt>:
   3bc10:	d0000430 	adrp	x16, c1000 <_DYNAMIC+0x188>
   3bc14:	f947aa11 	ldr	x17, [x16, #3920]
   3bc18:	913d4210 	add	x16, x16, #0xf50
   3bc1c:	d61f0220 	br	x17

000000000003bc20 <apr_rmm_init@plt>:
   3bc20:	d0000430 	adrp	x16, c1000 <_DYNAMIC+0x188>
   3bc24:	f947ae11 	ldr	x17, [x16, #3928]
   3bc28:	913d6210 	add	x16, x16, #0xf58
   3bc2c:	d61f0220 	br	x17

000000000003bc30 <apr_threadkey_data_set@plt>:
   3bc30:	d0000430 	adrp	x16, c1000 <_DYNAMIC+0x188>
   3bc34:	f947b211 	ldr	x17, [x16, #3936]
   3bc38:	913d8210 	add	x16, x16, #0xf60
   3bc3c:	d61f0220 	br	x17

000000000003bc40 <apr_palloc_debug@plt>:
   3bc40:	d0000430 	adrp	x16, c1000 <_DYNAMIC+0x188>
   3bc44:	f947b611 	ldr	x17, [x16, #3944]
   3bc48:	913da210 	add	x16, x16, #0xf68
   3bc4c:	d61f0220 	br	x17

000000000003bc50 <apr_dbm_get_usednames_ex@plt>:
   3bc50:	d0000430 	adrp	x16, c1000 <_DYNAMIC+0x188>
   3bc54:	f947ba11 	ldr	x17, [x16, #3952]
   3bc58:	913dc210 	add	x16, x16, #0xf70
   3bc5c:	d61f0220 	br	x17

000000000003bc60 <apr_bucket_alloc_destroy@plt>:
   3bc60:	d0000430 	adrp	x16, c1000 <_DYNAMIC+0x188>
   3bc64:	f947be11 	ldr	x17, [x16, #3960]
   3bc68:	913de210 	add	x16, x16, #0xf78
   3bc6c:	d61f0220 	br	x17

000000000003bc70 <apr_thread_pool_threshold_set@plt>:
   3bc70:	d0000430 	adrp	x16, c1000 <_DYNAMIC+0x188>
   3bc74:	f947c211 	ldr	x17, [x16, #3968]
   3bc78:	913e0210 	add	x16, x16, #0xf80
   3bc7c:	d61f0220 	br	x17

000000000003bc80 <apr_pstrdup@plt>:
   3bc80:	d0000430 	adrp	x16, c1000 <_DYNAMIC+0x188>
   3bc84:	f947c611 	ldr	x17, [x16, #3976]
   3bc88:	913e2210 	add	x16, x16, #0xf88
   3bc8c:	d61f0220 	br	x17

000000000003bc90 <apr_pool_terminate@plt>:
   3bc90:	d0000430 	adrp	x16, c1000 <_DYNAMIC+0x188>
   3bc94:	f947ca11 	ldr	x17, [x16, #3984]
   3bc98:	913e4210 	add	x16, x16, #0xf90
   3bc9c:	d61f0220 	br	x17

000000000003bca0 <apr_collapse_spaces@plt>:
   3bca0:	d0000430 	adrp	x16, c1000 <_DYNAMIC+0x188>
   3bca4:	f947ce11 	ldr	x17, [x16, #3992]
   3bca8:	913e6210 	add	x16, x16, #0xf98
   3bcac:	d61f0220 	br	x17

000000000003bcb0 <apr_dbd_datum_get@plt>:
   3bcb0:	d0000430 	adrp	x16, c1000 <_DYNAMIC+0x188>
   3bcb4:	f947d211 	ldr	x17, [x16, #4000]
   3bcb8:	913e8210 	add	x16, x16, #0xfa0
   3bcbc:	d61f0220 	br	x17

000000000003bcc0 <apr_dbm_delete@plt>:
   3bcc0:	d0000430 	adrp	x16, c1000 <_DYNAMIC+0x188>
   3bcc4:	f947d611 	ldr	x17, [x16, #4008]
   3bcc8:	913ea210 	add	x16, x16, #0xfa8
   3bccc:	d61f0220 	br	x17

000000000003bcd0 <apr_redis_find_server_hash_default@plt>:
   3bcd0:	d0000430 	adrp	x16, c1000 <_DYNAMIC+0x188>
   3bcd4:	f947da11 	ldr	x17, [x16, #4016]
   3bcd8:	913ec210 	add	x16, x16, #0xfb0
   3bcdc:	d61f0220 	br	x17

000000000003bce0 <apr_bucket_socket_make@plt>:
   3bce0:	d0000430 	adrp	x16, c1000 <_DYNAMIC+0x188>
   3bce4:	f947de11 	ldr	x17, [x16, #4024]
   3bce8:	913ee210 	add	x16, x16, #0xfb8
   3bcec:	d61f0220 	br	x17

000000000003bcf0 <apr_socket_create@plt>:
   3bcf0:	d0000430 	adrp	x16, c1000 <_DYNAMIC+0x188>
   3bcf4:	f947e211 	ldr	x17, [x16, #4032]
   3bcf8:	913f0210 	add	x16, x16, #0xfc0
   3bcfc:	d61f0220 	br	x17

000000000003bd00 <apr_reslist_acquired_count@plt>:
   3bd00:	d0000430 	adrp	x16, c1000 <_DYNAMIC+0x188>
   3bd04:	f947e611 	ldr	x17, [x16, #4040]
   3bd08:	913f2210 	add	x16, x16, #0xfc8
   3bd0c:	d61f0220 	br	x17

000000000003bd10 <puts@plt>:
   3bd10:	d0000430 	adrp	x16, c1000 <_DYNAMIC+0x188>
   3bd14:	f947ea11 	ldr	x17, [x16, #4048]
   3bd18:	913f4210 	add	x16, x16, #0xfd0
   3bd1c:	d61f0220 	br	x17

000000000003bd20 <apr_dbd_pselect@plt>:
   3bd20:	d0000430 	adrp	x16, c1000 <_DYNAMIC+0x188>
   3bd24:	f947ee11 	ldr	x17, [x16, #4056]
   3bd28:	913f6210 	add	x16, x16, #0xfd8
   3bd2c:	d61f0220 	br	x17

000000000003bd30 <apr_table_merge@plt>:
   3bd30:	d0000430 	adrp	x16, c1000 <_DYNAMIC+0x188>
   3bd34:	f947f211 	ldr	x17, [x16, #4064]
   3bd38:	913f8210 	add	x16, x16, #0xfe0
   3bd3c:	d61f0220 	br	x17

000000000003bd40 <apr_file_remove@plt>:
   3bd40:	d0000430 	adrp	x16, c1000 <_DYNAMIC+0x188>
   3bd44:	f947f611 	ldr	x17, [x16, #4072]
   3bd48:	913fa210 	add	x16, x16, #0xfe8
   3bd4c:	d61f0220 	br	x17

000000000003bd50 <apr_pdecode_base32@plt>:
   3bd50:	d0000430 	adrp	x16, c1000 <_DYNAMIC+0x188>
   3bd54:	f947fa11 	ldr	x17, [x16, #4080]
   3bd58:	913fc210 	add	x16, x16, #0xff0
   3bd5c:	d61f0220 	br	x17

000000000003bd60 <apr_array_copy_hdr@plt>:
   3bd60:	d0000430 	adrp	x16, c1000 <_DYNAMIC+0x188>
   3bd64:	f947fe11 	ldr	x17, [x16, #4088]
   3bd68:	913fe210 	add	x16, x16, #0xff8
   3bd6c:	d61f0220 	br	x17

000000000003bd70 <apr_os_thread_put@plt>:
   3bd70:	f0000430 	adrp	x16, c2000 <apr_os_thread_put>
   3bd74:	f9400211 	ldr	x17, [x16]
   3bd78:	91000210 	add	x16, x16, #0x0
   3bd7c:	d61f0220 	br	x17

000000000003bd80 <apr_mcast_join@plt>:
   3bd80:	f0000430 	adrp	x16, c2000 <apr_os_thread_put>
   3bd84:	f9400611 	ldr	x17, [x16, #8]
   3bd88:	91002210 	add	x16, x16, #0x8
   3bd8c:	d61f0220 	br	x17

000000000003bd90 <apr_file_flush@plt>:
   3bd90:	f0000430 	adrp	x16, c2000 <apr_os_thread_put>
   3bd94:	f9400a11 	ldr	x17, [x16, #16]
   3bd98:	91004210 	add	x16, x16, #0x10
   3bd9c:	d61f0220 	br	x17

000000000003bda0 <apr_atomic_casptr@plt>:
   3bda0:	f0000430 	adrp	x16, c2000 <apr_os_thread_put>
   3bda4:	f9400e11 	ldr	x17, [x16, #24]
   3bda8:	91006210 	add	x16, x16, #0x18
   3bdac:	d61f0220 	br	x17

000000000003bdb0 <apr_bucket_file_create@plt>:
   3bdb0:	f0000430 	adrp	x16, c2000 <apr_os_thread_put>
   3bdb4:	f9401211 	ldr	x17, [x16, #32]
   3bdb8:	91008210 	add	x16, x16, #0x20
   3bdbc:	d61f0220 	br	x17

000000000003bdc0 <apr_atomic_cas64@plt>:
   3bdc0:	f0000430 	adrp	x16, c2000 <apr_os_thread_put>
   3bdc4:	f9401611 	ldr	x17, [x16, #40]
   3bdc8:	9100a210 	add	x16, x16, #0x28
   3bdcc:	d61f0220 	br	x17

000000000003bdd0 <apr_pollset_wakeup@plt>:
   3bdd0:	f0000430 	adrp	x16, c2000 <apr_os_thread_put>
   3bdd4:	f9401a11 	ldr	x17, [x16, #48]
   3bdd8:	9100c210 	add	x16, x16, #0x30
   3bddc:	d61f0220 	br	x17

000000000003bde0 <apr_queue_trypop@plt>:
   3bde0:	f0000430 	adrp	x16, c2000 <apr_os_thread_put>
   3bde4:	f9401e11 	ldr	x17, [x16, #56]
   3bde8:	9100e210 	add	x16, x16, #0x38
   3bdec:	d61f0220 	br	x17

000000000003bdf0 <apr_siphash48@plt>:
   3bdf0:	f0000430 	adrp	x16, c2000 <apr_os_thread_put>
   3bdf4:	f9402211 	ldr	x17, [x16, #64]
   3bdf8:	91010210 	add	x16, x16, #0x40
   3bdfc:	d61f0220 	br	x17

000000000003be00 <apr_array_pstrcat@plt>:
   3be00:	f0000430 	adrp	x16, c2000 <apr_os_thread_put>
   3be04:	f9402611 	ldr	x17, [x16, #72]
   3be08:	91012210 	add	x16, x16, #0x48
   3be0c:	d61f0220 	br	x17

000000000003be10 <apr_dbm_fetch@plt>:
   3be10:	f0000430 	adrp	x16, c2000 <apr_os_thread_put>
   3be14:	f9402a11 	ldr	x17, [x16, #80]
   3be18:	91014210 	add	x16, x16, #0x50
   3be1c:	d61f0220 	br	x17

000000000003be20 <memcmp@plt>:
   3be20:	f0000430 	adrp	x16, c2000 <apr_os_thread_put>
   3be24:	f9402e11 	ldr	x17, [x16, #88]
   3be28:	91016210 	add	x16, x16, #0x58
   3be2c:	d61f0220 	br	x17

000000000003be30 <apr_socket_shutdown@plt>:
   3be30:	f0000430 	adrp	x16, c2000 <apr_os_thread_put>
   3be34:	f9403211 	ldr	x17, [x16, #96]
   3be38:	91018210 	add	x16, x16, #0x60
   3be3c:	d61f0220 	br	x17

000000000003be40 <apr_hash_make@plt>:
   3be40:	f0000430 	adrp	x16, c2000 <apr_os_thread_put>
   3be44:	f9403611 	ldr	x17, [x16, #104]
   3be48:	9101a210 	add	x16, x16, #0x68
   3be4c:	d61f0220 	br	x17

000000000003be50 <apr_threadattr_guardsize_set@plt>:
   3be50:	f0000430 	adrp	x16, c2000 <apr_os_thread_put>
   3be54:	f9403a11 	ldr	x17, [x16, #112]
   3be58:	9101c210 	add	x16, x16, #0x70
   3be5c:	d61f0220 	br	x17

000000000003be60 <apr_thread_pool_tasks_cancel@plt>:
   3be60:	f0000430 	adrp	x16, c2000 <apr_os_thread_put>
   3be64:	f9403e11 	ldr	x17, [x16, #120]
   3be68:	9101e210 	add	x16, x16, #0x78
   3be6c:	d61f0220 	br	x17

000000000003be70 <apr_socket_timeout_set@plt>:
   3be70:	f0000430 	adrp	x16, c2000 <apr_os_thread_put>
   3be74:	f9404211 	ldr	x17, [x16, #128]
   3be78:	91020210 	add	x16, x16, #0x80
   3be7c:	d61f0220 	br	x17

000000000003be80 <apr_bucket_split_notimpl@plt>:
   3be80:	f0000430 	adrp	x16, c2000 <apr_os_thread_put>
   3be84:	f9404611 	ldr	x17, [x16, #136]
   3be88:	91022210 	add	x16, x16, #0x88
   3be8c:	d61f0220 	br	x17

000000000003be90 <apr_bucket_immortal_create@plt>:
   3be90:	f0000430 	adrp	x16, c2000 <apr_os_thread_put>
   3be94:	f9404a11 	ldr	x17, [x16, #144]
   3be98:	91024210 	add	x16, x16, #0x90
   3be9c:	d61f0220 	br	x17

000000000003bea0 <apr_snprintf@plt>:
   3bea0:	f0000430 	adrp	x16, c2000 <apr_os_thread_put>
   3bea4:	f9404e11 	ldr	x17, [x16, #152]
   3bea8:	91026210 	add	x16, x16, #0x98
   3beac:	d61f0220 	br	x17

000000000003beb0 <__fprintf_chk@plt>:
   3beb0:	f0000430 	adrp	x16, c2000 <apr_os_thread_put>
   3beb4:	f9405211 	ldr	x17, [x16, #160]
   3beb8:	91028210 	add	x16, x16, #0xa0
   3bebc:	d61f0220 	br	x17

000000000003bec0 <apr_file_unlock@plt>:
   3bec0:	f0000430 	adrp	x16, c2000 <apr_os_thread_put>
   3bec4:	f9405611 	ldr	x17, [x16, #168]
   3bec8:	9102a210 	add	x16, x16, #0xa8
   3becc:	d61f0220 	br	x17

000000000003bed0 <apr_psprintf@plt>:
   3bed0:	f0000430 	adrp	x16, c2000 <apr_os_thread_put>
   3bed4:	f9405a11 	ldr	x17, [x16, #176]
   3bed8:	9102c210 	add	x16, x16, #0xb0
   3bedc:	d61f0220 	br	x17

000000000003bee0 <strcmp@plt>:
   3bee0:	f0000430 	adrp	x16, c2000 <apr_os_thread_put>
   3bee4:	f9405e11 	ldr	x17, [x16, #184]
   3bee8:	9102e210 	add	x16, x16, #0xb8
   3beec:	d61f0220 	br	x17

000000000003bef0 <apr_skiplist_last@plt>:
   3bef0:	f0000430 	adrp	x16, c2000 <apr_os_thread_put>
   3bef4:	f9406211 	ldr	x17, [x16, #192]
   3bef8:	91030210 	add	x16, x16, #0xc0
   3befc:	d61f0220 	br	x17

000000000003bf00 <apr_socket_recvfrom@plt>:
   3bf00:	f0000430 	adrp	x16, c2000 <apr_os_thread_put>
   3bf04:	f9406611 	ldr	x17, [x16, #200]
   3bf08:	91032210 	add	x16, x16, #0xc8
   3bf0c:	d61f0220 	br	x17

000000000003bf10 <apr_encode_base16@plt>:
   3bf10:	f0000430 	adrp	x16, c2000 <apr_os_thread_put>
   3bf14:	f9406a11 	ldr	x17, [x16, #208]
   3bf18:	91034210 	add	x16, x16, #0xd0
   3bf1c:	d61f0220 	br	x17

000000000003bf20 <apr_procattr_child_errfn_set@plt>:
   3bf20:	f0000430 	adrp	x16, c2000 <apr_os_thread_put>
   3bf24:	f9406e11 	ldr	x17, [x16, #216]
   3bf28:	91036210 	add	x16, x16, #0xd8
   3bf2c:	d61f0220 	br	x17

000000000003bf30 <apr_random_standard_new@plt>:
   3bf30:	f0000430 	adrp	x16, c2000 <apr_os_thread_put>
   3bf34:	f9407211 	ldr	x17, [x16, #224]
   3bf38:	91038210 	add	x16, x16, #0xe0
   3bf3c:	d61f0220 	br	x17

000000000003bf40 <__ctype_b_loc@plt>:
   3bf40:	f0000430 	adrp	x16, c2000 <apr_os_thread_put>
   3bf44:	f9407611 	ldr	x17, [x16, #232]
   3bf48:	9103a210 	add	x16, x16, #0xe8
   3bf4c:	d61f0220 	br	x17

000000000003bf50 <apr_file_pipe_timeout_set@plt>:
   3bf50:	f0000430 	adrp	x16, c2000 <apr_os_thread_put>
   3bf54:	f9407a11 	ldr	x17, [x16, #240]
   3bf58:	9103c210 	add	x16, x16, #0xf0
   3bf5c:	d61f0220 	br	x17

000000000003bf60 <apr_skiplist_previous@plt>:
   3bf60:	f0000430 	adrp	x16, c2000 <apr_os_thread_put>
   3bf64:	f9407e11 	ldr	x17, [x16, #248]
   3bf68:	9103e210 	add	x16, x16, #0xf8
   3bf6c:	d61f0220 	br	x17

000000000003bf70 <apr_socket_data_set@plt>:
   3bf70:	f0000430 	adrp	x16, c2000 <apr_os_thread_put>
   3bf74:	f9408211 	ldr	x17, [x16, #256]
   3bf78:	91040210 	add	x16, x16, #0x100
   3bf7c:	d61f0220 	br	x17

000000000003bf80 <apr_atomic_read32@plt>:
   3bf80:	f0000430 	adrp	x16, c2000 <apr_os_thread_put>
   3bf84:	f9408611 	ldr	x17, [x16, #264]
   3bf88:	91042210 	add	x16, x16, #0x108
   3bf8c:	d61f0220 	br	x17

000000000003bf90 <apr_sdbm_nextkey@plt>:
   3bf90:	f0000430 	adrp	x16, c2000 <apr_os_thread_put>
   3bf94:	f9408a11 	ldr	x17, [x16, #272]
   3bf98:	91044210 	add	x16, x16, #0x110
   3bf9c:	d61f0220 	br	x17

000000000003bfa0 <apr_hash_count@plt>:
   3bfa0:	f0000430 	adrp	x16, c2000 <apr_os_thread_put>
   3bfa4:	f9408e11 	ldr	x17, [x16, #280]
   3bfa8:	91046210 	add	x16, x16, #0x118
   3bfac:	d61f0220 	br	x17

000000000003bfb0 <strtol@plt>:
   3bfb0:	f0000430 	adrp	x16, c2000 <apr_os_thread_put>
   3bfb4:	f9409211 	ldr	x17, [x16, #288]
   3bfb8:	91048210 	add	x16, x16, #0x120
   3bfbc:	d61f0220 	br	x17

000000000003bfc0 <apr_shm_destroy@plt>:
   3bfc0:	f0000430 	adrp	x16, c2000 <apr_os_thread_put>
   3bfc4:	f9409611 	ldr	x17, [x16, #296]
   3bfc8:	9104a210 	add	x16, x16, #0x128
   3bfcc:	d61f0220 	br	x17

000000000003bfd0 <apr_reslist_destroy@plt>:
   3bfd0:	f0000430 	adrp	x16, c2000 <apr_os_thread_put>
   3bfd4:	f9409a11 	ldr	x17, [x16, #304]
   3bfd8:	9104c210 	add	x16, x16, #0x130
   3bfdc:	d61f0220 	br	x17

000000000003bfe0 <apr_file_datasync@plt>:
   3bfe0:	f0000430 	adrp	x16, c2000 <apr_os_thread_put>
   3bfe4:	f9409e11 	ldr	x17, [x16, #312]
   3bfe8:	9104e210 	add	x16, x16, #0x138
   3bfec:	d61f0220 	br	x17

000000000003bff0 <apr_bucket_flush_create@plt>:
   3bff0:	f0000430 	adrp	x16, c2000 <apr_os_thread_put>
   3bff4:	f940a211 	ldr	x17, [x16, #320]
   3bff8:	91050210 	add	x16, x16, #0x140
   3bffc:	d61f0220 	br	x17

000000000003c000 <apr_procattr_create@plt>:
   3c000:	d0000430 	adrp	x16, c2000 <apr_os_thread_put>
   3c004:	f940a611 	ldr	x17, [x16, #328]
   3c008:	91052210 	add	x16, x16, #0x148
   3c00c:	d61f0220 	br	x17

000000000003c010 <apr_thread_pool_scheduled_tasks_count@plt>:
   3c010:	d0000430 	adrp	x16, c2000 <apr_os_thread_put>
   3c014:	f940aa11 	ldr	x17, [x16, #336]
   3c018:	91054210 	add	x16, x16, #0x150
   3c01c:	d61f0220 	br	x17

000000000003c020 <apr_socket_opt_get@plt>:
   3c020:	d0000430 	adrp	x16, c2000 <apr_os_thread_put>
   3c024:	f940ae11 	ldr	x17, [x16, #344]
   3c028:	91056210 	add	x16, x16, #0x158
   3c02c:	d61f0220 	br	x17

000000000003c030 <apr_os_thread_current@plt>:
   3c030:	d0000430 	adrp	x16, c2000 <apr_os_thread_put>
   3c034:	f940b211 	ldr	x17, [x16, #352]
   3c038:	91058210 	add	x16, x16, #0x160
   3c03c:	d61f0220 	br	x17

000000000003c040 <apr_dbd_pvquery@plt>:
   3c040:	d0000430 	adrp	x16, c2000 <apr_os_thread_put>
   3c044:	f940b611 	ldr	x17, [x16, #360]
   3c048:	9105a210 	add	x16, x16, #0x168
   3c04c:	d61f0220 	br	x17

000000000003c050 <apr_array_pop@plt>:
   3c050:	d0000430 	adrp	x16, c2000 <apr_os_thread_put>
   3c054:	f940ba11 	ldr	x17, [x16, #368]
   3c058:	9105c210 	add	x16, x16, #0x170
   3c05c:	d61f0220 	br	x17

000000000003c060 <apr_memcache_enable_server@plt>:
   3c060:	d0000430 	adrp	x16, c2000 <apr_os_thread_put>
   3c064:	f940be11 	ldr	x17, [x16, #376]
   3c068:	9105e210 	add	x16, x16, #0x178
   3c06c:	d61f0220 	br	x17

000000000003c070 <apr_skiplist_next@plt>:
   3c070:	d0000430 	adrp	x16, c2000 <apr_os_thread_put>
   3c074:	f940c211 	ldr	x17, [x16, #384]
   3c078:	91060210 	add	x16, x16, #0x180
   3c07c:	d61f0220 	br	x17

000000000003c080 <apr_rmm_offset_get@plt>:
   3c080:	d0000430 	adrp	x16, c2000 <apr_os_thread_put>
   3c084:	f940c611 	ldr	x17, [x16, #392]
   3c088:	91062210 	add	x16, x16, #0x188
   3c08c:	d61f0220 	br	x17

000000000003c090 <apr_dbd_num_tuples@plt>:
   3c090:	d0000430 	adrp	x16, c2000 <apr_os_thread_put>
   3c094:	f940ca11 	ldr	x17, [x16, #400]
   3c098:	91064210 	add	x16, x16, #0x190
   3c09c:	d61f0220 	br	x17

000000000003c0a0 <apr_rmm_malloc@plt>:
   3c0a0:	d0000430 	adrp	x16, c2000 <apr_os_thread_put>
   3c0a4:	f940ce11 	ldr	x17, [x16, #408]
   3c0a8:	91066210 	add	x16, x16, #0x198
   3c0ac:	d61f0220 	br	x17

000000000003c0b0 <apr_rmm_calloc@plt>:
   3c0b0:	d0000430 	adrp	x16, c2000 <apr_os_thread_put>
   3c0b4:	f940d211 	ldr	x17, [x16, #416]
   3c0b8:	91068210 	add	x16, x16, #0x1a0
   3c0bc:	d61f0220 	br	x17

000000000003c0c0 <apr_bucket_flush_make@plt>:
   3c0c0:	d0000430 	adrp	x16, c2000 <apr_os_thread_put>
   3c0c4:	f940d611 	ldr	x17, [x16, #424]
   3c0c8:	9106a210 	add	x16, x16, #0x1a8
   3c0cc:	d61f0220 	br	x17

000000000003c0d0 <apr_md5_encode@plt>:
   3c0d0:	d0000430 	adrp	x16, c2000 <apr_os_thread_put>
   3c0d4:	f940da11 	ldr	x17, [x16, #432]
   3c0d8:	9106c210 	add	x16, x16, #0x1b0
   3c0dc:	d61f0220 	br	x17

000000000003c0e0 <apr_atomic_set32@plt>:
   3c0e0:	d0000430 	adrp	x16, c2000 <apr_os_thread_put>
   3c0e4:	f940de11 	ldr	x17, [x16, #440]
   3c0e8:	9106e210 	add	x16, x16, #0x1b8
   3c0ec:	d61f0220 	br	x17

000000000003c0f0 <apr_thread_cond_destroy@plt>:
   3c0f0:	d0000430 	adrp	x16, c2000 <apr_os_thread_put>
   3c0f4:	f940e211 	ldr	x17, [x16, #448]
   3c0f8:	91070210 	add	x16, x16, #0x1c0
   3c0fc:	d61f0220 	br	x17

000000000003c100 <apr_rmm_attach@plt>:
   3c100:	d0000430 	adrp	x16, c2000 <apr_os_thread_put>
   3c104:	f940e611 	ldr	x17, [x16, #456]
   3c108:	91072210 	add	x16, x16, #0x1c8
   3c10c:	d61f0220 	br	x17

000000000003c110 <apr_cstr_atoi64@plt>:
   3c110:	d0000430 	adrp	x16, c2000 <apr_os_thread_put>
   3c114:	f940ea11 	ldr	x17, [x16, #464]
   3c118:	91074210 	add	x16, x16, #0x1d0
   3c11c:	d61f0220 	br	x17

000000000003c120 <apr_xml_quote_string@plt>:
   3c120:	d0000430 	adrp	x16, c2000 <apr_os_thread_put>
   3c124:	f940ee11 	ldr	x17, [x16, #472]
   3c128:	91076210 	add	x16, x16, #0x1d8
   3c12c:	d61f0220 	br	x17

000000000003c130 <apr_xml_empty_elem@plt>:
   3c130:	d0000430 	adrp	x16, c2000 <apr_os_thread_put>
   3c134:	f940f211 	ldr	x17, [x16, #480]
   3c138:	91078210 	add	x16, x16, #0x1e0
   3c13c:	d61f0220 	br	x17

000000000003c140 <apr_pcalloc_debug@plt>:
   3c140:	d0000430 	adrp	x16, c2000 <apr_os_thread_put>
   3c144:	f940f611 	ldr	x17, [x16, #488]
   3c148:	9107a210 	add	x16, x16, #0x1e8
   3c14c:	d61f0220 	br	x17

000000000003c150 <apr_file_mtime_set@plt>:
   3c150:	d0000430 	adrp	x16, c2000 <apr_os_thread_put>
   3c154:	f940fa11 	ldr	x17, [x16, #496]
   3c158:	9107c210 	add	x16, x16, #0x1f0
   3c15c:	d61f0220 	br	x17

000000000003c160 <apr_redis_create@plt>:
   3c160:	d0000430 	adrp	x16, c2000 <apr_os_thread_put>
   3c164:	f940fe11 	ldr	x17, [x16, #504]
   3c168:	9107e210 	add	x16, x16, #0x1f8
   3c16c:	d61f0220 	br	x17

000000000003c170 <apr_atomic_add64@plt>:
   3c170:	d0000430 	adrp	x16, c2000 <apr_os_thread_put>
   3c174:	f9410211 	ldr	x17, [x16, #512]
   3c178:	91080210 	add	x16, x16, #0x200
   3c17c:	d61f0220 	br	x17

000000000003c180 <apr_global_mutex_unlock@plt>:
   3c180:	d0000430 	adrp	x16, c2000 <apr_os_thread_put>
   3c184:	f9410611 	ldr	x17, [x16, #520]
   3c188:	91082210 	add	x16, x16, #0x208
   3c18c:	d61f0220 	br	x17

000000000003c190 <apr_procattr_addrspace_set@plt>:
   3c190:	d0000430 	adrp	x16, c2000 <apr_os_thread_put>
   3c194:	f9410a11 	ldr	x17, [x16, #528]
   3c198:	91084210 	add	x16, x16, #0x210
   3c19c:	d61f0220 	br	x17

000000000003c1a0 <apr_optional_hook_add@plt>:
   3c1a0:	d0000430 	adrp	x16, c2000 <apr_os_thread_put>
   3c1a4:	f9410e11 	ldr	x17, [x16, #536]
   3c1a8:	91086210 	add	x16, x16, #0x218
   3c1ac:	d61f0220 	br	x17

000000000003c1b0 <apr_procattr_group_set@plt>:
   3c1b0:	d0000430 	adrp	x16, c2000 <apr_os_thread_put>
   3c1b4:	f9411211 	ldr	x17, [x16, #544]
   3c1b8:	91088210 	add	x16, x16, #0x220
   3c1bc:	d61f0220 	br	x17

000000000003c1c0 <apr_dynamic_fn_retrieve@plt>:
   3c1c0:	d0000430 	adrp	x16, c2000 <apr_os_thread_put>
   3c1c4:	f9411611 	ldr	x17, [x16, #552]
   3c1c8:	9108a210 	add	x16, x16, #0x228
   3c1cc:	d61f0220 	br	x17

000000000003c1d0 <apr_skiplist_set_compare@plt>:
   3c1d0:	d0000430 	adrp	x16, c2000 <apr_os_thread_put>
   3c1d4:	f9411a11 	ldr	x17, [x16, #560]
   3c1d8:	9108c210 	add	x16, x16, #0x230
   3c1dc:	d61f0220 	br	x17

000000000003c1e0 <apr_thread_pool_get@plt>:
   3c1e0:	d0000430 	adrp	x16, c2000 <apr_os_thread_put>
   3c1e4:	f9411e11 	ldr	x17, [x16, #568]
   3c1e8:	9108e210 	add	x16, x16, #0x238
   3c1ec:	d61f0220 	br	x17

000000000003c1f0 <apr_text_append@plt>:
   3c1f0:	d0000430 	adrp	x16, c2000 <apr_os_thread_put>
   3c1f4:	f9412211 	ldr	x17, [x16, #576]
   3c1f8:	91090210 	add	x16, x16, #0x240
   3c1fc:	d61f0220 	br	x17

000000000003c200 <apr_memcache_find_server_hash@plt>:
   3c200:	d0000430 	adrp	x16, c2000 <apr_os_thread_put>
   3c204:	f9412611 	ldr	x17, [x16, #584]
   3c208:	91092210 	add	x16, x16, #0x248
   3c20c:	d61f0220 	br	x17

000000000003c210 <apr_cstr_skip_prefix@plt>:
   3c210:	d0000430 	adrp	x16, c2000 <apr_os_thread_put>
   3c214:	f9412a11 	ldr	x17, [x16, #592]
   3c218:	91094210 	add	x16, x16, #0x250
   3c21c:	d61f0220 	br	x17

000000000003c220 <apr_table_getm@plt>:
   3c220:	d0000430 	adrp	x16, c2000 <apr_os_thread_put>
   3c224:	f9412e11 	ldr	x17, [x16, #600]
   3c228:	91096210 	add	x16, x16, #0x258
   3c22c:	d61f0220 	br	x17

000000000003c230 <apr_dbd_pquery@plt>:
   3c230:	d0000430 	adrp	x16, c2000 <apr_os_thread_put>
   3c234:	f9413211 	ldr	x17, [x16, #608]
   3c238:	91098210 	add	x16, x16, #0x260
   3c23c:	d61f0220 	br	x17

000000000003c240 <free@plt>:
   3c240:	d0000430 	adrp	x16, c2000 <apr_os_thread_put>
   3c244:	f9413611 	ldr	x17, [x16, #616]
   3c248:	9109a210 	add	x16, x16, #0x268
   3c24c:	d61f0220 	br	x17

000000000003c250 <apr_file_eof@plt>:
   3c250:	d0000430 	adrp	x16, c2000 <apr_os_thread_put>
   3c254:	f9413a11 	ldr	x17, [x16, #624]
   3c258:	9109c210 	add	x16, x16, #0x270
   3c25c:	d61f0220 	br	x17

000000000003c260 <apr_thread_mutex_trylock@plt>:
   3c260:	d0000430 	adrp	x16, c2000 <apr_os_thread_put>
   3c264:	f9413e11 	ldr	x17, [x16, #632]
   3c268:	9109e210 	add	x16, x16, #0x278
   3c26c:	d61f0220 	br	x17

000000000003c270 <apr_file_pipe_create_ex@plt>:
   3c270:	d0000430 	adrp	x16, c2000 <apr_os_thread_put>
   3c274:	f9414211 	ldr	x17, [x16, #640]
   3c278:	910a0210 	add	x16, x16, #0x280
   3c27c:	d61f0220 	br	x17

000000000003c280 <apr_socket_close@plt>:
   3c280:	d0000430 	adrp	x16, c2000 <apr_os_thread_put>
   3c284:	f9414611 	ldr	x17, [x16, #648]
   3c288:	910a2210 	add	x16, x16, #0x288
   3c28c:	d61f0220 	br	x17

000000000003c290 <apr_cstr_match_glob_list@plt>:
   3c290:	d0000430 	adrp	x16, c2000 <apr_os_thread_put>
   3c294:	f9414a11 	ldr	x17, [x16, #656]
   3c298:	910a4210 	add	x16, x16, #0x290
   3c29c:	d61f0220 	br	x17

000000000003c2a0 <apr_threadkey_private_create@plt>:
   3c2a0:	d0000430 	adrp	x16, c2000 <apr_os_thread_put>
   3c2a4:	f9414e11 	ldr	x17, [x16, #664]
   3c2a8:	910a6210 	add	x16, x16, #0x298
   3c2ac:	d61f0220 	br	x17

000000000003c2b0 <apr_socket_inherit_unset@plt>:
   3c2b0:	d0000430 	adrp	x16, c2000 <apr_os_thread_put>
   3c2b4:	f9415211 	ldr	x17, [x16, #672]
   3c2b8:	910a8210 	add	x16, x16, #0x2a0
   3c2bc:	d61f0220 	br	x17

000000000003c2c0 <apr_bucket_shared_copy@plt>:
   3c2c0:	d0000430 	adrp	x16, c2000 <apr_os_thread_put>
   3c2c4:	f9415611 	ldr	x17, [x16, #680]
   3c2c8:	910aa210 	add	x16, x16, #0x2a8
   3c2cc:	d61f0220 	br	x17

000000000003c2d0 <apr_threadattr_detach_set@plt>:
   3c2d0:	d0000430 	adrp	x16, c2000 <apr_os_thread_put>
   3c2d4:	f9415a11 	ldr	x17, [x16, #688]
   3c2d8:	910ac210 	add	x16, x16, #0x2b0
   3c2dc:	d61f0220 	br	x17

000000000003c2e0 <apr_dbd_escape@plt>:
   3c2e0:	d0000430 	adrp	x16, c2000 <apr_os_thread_put>
   3c2e4:	f9415e11 	ldr	x17, [x16, #696]
   3c2e8:	910ae210 	add	x16, x16, #0x2b8
   3c2ec:	d61f0220 	br	x17

000000000003c2f0 <apr_sdbm_unlock@plt>:
   3c2f0:	d0000430 	adrp	x16, c2000 <apr_os_thread_put>
   3c2f4:	f9416211 	ldr	x17, [x16, #704]
   3c2f8:	910b0210 	add	x16, x16, #0x2c0
   3c2fc:	d61f0220 	br	x17

000000000003c300 <apr_dbd_pvbselect@plt>:
   3c300:	d0000430 	adrp	x16, c2000 <apr_os_thread_put>
   3c304:	f9416611 	ldr	x17, [x16, #712]
   3c308:	910b2210 	add	x16, x16, #0x2c8
   3c30c:	d61f0220 	br	x17

000000000003c310 <apr_pool_cleanup_null@plt>:
   3c310:	d0000430 	adrp	x16, c2000 <apr_os_thread_put>
   3c314:	f9416a11 	ldr	x17, [x16, #720]
   3c318:	910b4210 	add	x16, x16, #0x2d0
   3c31c:	d61f0220 	br	x17

000000000003c320 <apr_xml_insert_uri@plt>:
   3c320:	d0000430 	adrp	x16, c2000 <apr_os_thread_put>
   3c324:	f9416e11 	ldr	x17, [x16, #728]
   3c328:	910b6210 	add	x16, x16, #0x2d8
   3c32c:	d61f0220 	br	x17

000000000003c330 <apr_mmap_offset@plt>:
   3c330:	d0000430 	adrp	x16, c2000 <apr_os_thread_put>
   3c334:	f9417211 	ldr	x17, [x16, #736]
   3c338:	910b8210 	add	x16, x16, #0x2e0
   3c33c:	d61f0220 	br	x17

000000000003c340 <apr_shm_size_get@plt>:
   3c340:	d0000430 	adrp	x16, c2000 <apr_os_thread_put>
   3c344:	f9417611 	ldr	x17, [x16, #744]
   3c348:	910ba210 	add	x16, x16, #0x2e8
   3c34c:	d61f0220 	br	x17

000000000003c350 <apr_pollcb_wakeup@plt>:
   3c350:	d0000430 	adrp	x16, c2000 <apr_os_thread_put>
   3c354:	f9417a11 	ldr	x17, [x16, #752]
   3c358:	910bc210 	add	x16, x16, #0x2f0
   3c35c:	d61f0220 	br	x17

000000000003c360 <apr_pdecode_base32_binary@plt>:
   3c360:	d0000430 	adrp	x16, c2000 <apr_os_thread_put>
   3c364:	f9417e11 	ldr	x17, [x16, #760]
   3c368:	910be210 	add	x16, x16, #0x2f8
   3c36c:	d61f0220 	br	x17

000000000003c370 <apr_file_flags_get@plt>:
   3c370:	d0000430 	adrp	x16, c2000 <apr_os_thread_put>
   3c374:	f9418211 	ldr	x17, [x16, #768]
   3c378:	910c0210 	add	x16, x16, #0x300
   3c37c:	d61f0220 	br	x17

000000000003c380 <apr_sockaddr_zone_set@plt>:
   3c380:	d0000430 	adrp	x16, c2000 <apr_os_thread_put>
   3c384:	f9418611 	ldr	x17, [x16, #776]
   3c388:	910c2210 	add	x16, x16, #0x308
   3c38c:	d61f0220 	br	x17

000000000003c390 <apr_atomic_dec64@plt>:
   3c390:	d0000430 	adrp	x16, c2000 <apr_os_thread_put>
   3c394:	f9418a11 	ldr	x17, [x16, #784]
   3c398:	910c4210 	add	x16, x16, #0x310
   3c39c:	d61f0220 	br	x17

000000000003c3a0 <getpgrp@plt>:
   3c3a0:	d0000430 	adrp	x16, c2000 <apr_os_thread_put>
   3c3a4:	f9418e11 	ldr	x17, [x16, #792]
   3c3a8:	910c6210 	add	x16, x16, #0x318
   3c3ac:	d61f0220 	br	x17

000000000003c3b0 <apr_global_mutex_destroy@plt>:
   3c3b0:	d0000430 	adrp	x16, c2000 <apr_os_thread_put>
   3c3b4:	f9419211 	ldr	x17, [x16, #800]
   3c3b8:	910c8210 	add	x16, x16, #0x320
   3c3bc:	d61f0220 	br	x17

000000000003c3c0 <apr_thread_pool_create@plt>:
   3c3c0:	d0000430 	adrp	x16, c2000 <apr_os_thread_put>
   3c3c4:	f9419611 	ldr	x17, [x16, #808]
   3c3c8:	910ca210 	add	x16, x16, #0x328
   3c3cc:	d61f0220 	br	x17

000000000003c3d0 <apr_dbm_firstkey@plt>:
   3c3d0:	d0000430 	adrp	x16, c2000 <apr_os_thread_put>
   3c3d4:	f9419a11 	ldr	x17, [x16, #816]
   3c3d8:	910cc210 	add	x16, x16, #0x330
   3c3dc:	d61f0220 	br	x17

000000000003c3e0 <apr_file_writev_full@plt>:
   3c3e0:	d0000430 	adrp	x16, c2000 <apr_os_thread_put>
   3c3e4:	f9419e11 	ldr	x17, [x16, #824]
   3c3e8:	910ce210 	add	x16, x16, #0x338
   3c3ec:	d61f0220 	br	x17

000000000003c3f0 <apr_random_insecure_ready@plt>:
   3c3f0:	d0000430 	adrp	x16, c2000 <apr_os_thread_put>
   3c3f4:	f941a211 	ldr	x17, [x16, #832]
   3c3f8:	910d0210 	add	x16, x16, #0x340
   3c3fc:	d61f0220 	br	x17

000000000003c400 <apr_os_dir_put@plt>:
   3c400:	d0000430 	adrp	x16, c2000 <apr_os_thread_put>
   3c404:	f941a611 	ldr	x17, [x16, #840]
   3c408:	910d2210 	add	x16, x16, #0x348
   3c40c:	d61f0220 	br	x17

000000000003c410 <apr_socket_atmark@plt>:
   3c410:	d0000430 	adrp	x16, c2000 <apr_os_thread_put>
   3c414:	f941aa11 	ldr	x17, [x16, #848]
   3c418:	910d4210 	add	x16, x16, #0x350
   3c41c:	d61f0220 	br	x17

000000000003c420 <apr_proc_fork@plt>:
   3c420:	d0000430 	adrp	x16, c2000 <apr_os_thread_put>
   3c424:	f941ae11 	ldr	x17, [x16, #856]
   3c428:	910d6210 	add	x16, x16, #0x358
   3c42c:	d61f0220 	br	x17

000000000003c430 <apr_redis_delete@plt>:
   3c430:	d0000430 	adrp	x16, c2000 <apr_os_thread_put>
   3c434:	f941b211 	ldr	x17, [x16, #864]
   3c438:	910d8210 	add	x16, x16, #0x360
   3c43c:	d61f0220 	br	x17

000000000003c440 <apr_sleep@plt>:
   3c440:	d0000430 	adrp	x16, c2000 <apr_os_thread_put>
   3c444:	f941b611 	ldr	x17, [x16, #872]
   3c448:	910da210 	add	x16, x16, #0x368
   3c44c:	d61f0220 	br	x17

000000000003c450 <apr_bucket_pool_make@plt>:
   3c450:	d0000430 	adrp	x16, c2000 <apr_os_thread_put>
   3c454:	f941ba11 	ldr	x17, [x16, #880]
   3c458:	910dc210 	add	x16, x16, #0x370
   3c45c:	d61f0220 	br	x17

000000000003c460 <apr_pollset_create_ex@plt>:
   3c460:	d0000430 	adrp	x16, c2000 <apr_os_thread_put>
   3c464:	f941be11 	ldr	x17, [x16, #888]
   3c468:	910de210 	add	x16, x16, #0x378
   3c46c:	d61f0220 	br	x17

000000000003c470 <strncasecmp@plt>:
   3c470:	d0000430 	adrp	x16, c2000 <apr_os_thread_put>
   3c474:	f941c211 	ldr	x17, [x16, #896]
   3c478:	910e0210 	add	x16, x16, #0x380
   3c47c:	d61f0220 	br	x17

000000000003c480 <apr_brigade_cleanup@plt>:
   3c480:	d0000430 	adrp	x16, c2000 <apr_os_thread_put>
   3c484:	f941c611 	ldr	x17, [x16, #904]
   3c488:	910e2210 	add	x16, x16, #0x388
   3c48c:	d61f0220 	br	x17

000000000003c490 <apr_socket_opt_set@plt>:
   3c490:	d0000430 	adrp	x16, c2000 <apr_os_thread_put>
   3c494:	f941ca11 	ldr	x17, [x16, #912]
   3c498:	910e4210 	add	x16, x16, #0x390
   3c49c:	d61f0220 	br	x17

000000000003c4a0 <apr_threadattr_create@plt>:
   3c4a0:	d0000430 	adrp	x16, c2000 <apr_os_thread_put>
   3c4a4:	f941ce11 	ldr	x17, [x16, #920]
   3c4a8:	910e6210 	add	x16, x16, #0x398
   3c4ac:	d61f0220 	br	x17

000000000003c4b0 <apr_bucket_alloc@plt>:
   3c4b0:	d0000430 	adrp	x16, c2000 <apr_os_thread_put>
   3c4b4:	f941d211 	ldr	x17, [x16, #928]
   3c4b8:	910e8210 	add	x16, x16, #0x3a0
   3c4bc:	d61f0220 	br	x17

000000000003c4c0 <apr_cstr_casecmpn@plt>:
   3c4c0:	d0000430 	adrp	x16, c2000 <apr_os_thread_put>
   3c4c4:	f941d611 	ldr	x17, [x16, #936]
   3c4c8:	910ea210 	add	x16, x16, #0x3a8
   3c4cc:	d61f0220 	br	x17

000000000003c4d0 <apr_decode_base64_binary@plt>:
   3c4d0:	d0000430 	adrp	x16, c2000 <apr_os_thread_put>
   3c4d4:	f941da11 	ldr	x17, [x16, #944]
   3c4d8:	910ec210 	add	x16, x16, #0x3b0
   3c4dc:	d61f0220 	br	x17

000000000003c4e0 <freopen@plt>:
   3c4e0:	d0000430 	adrp	x16, c2000 <apr_os_thread_put>
   3c4e4:	f941de11 	ldr	x17, [x16, #952]
   3c4e8:	910ee210 	add	x16, x16, #0x3b8
   3c4ec:	d61f0220 	br	x17

000000000003c4f0 <apr_hashfunc_default@plt>:
   3c4f0:	d0000430 	adrp	x16, c2000 <apr_os_thread_put>
   3c4f4:	f941e211 	ldr	x17, [x16, #960]
   3c4f8:	910f0210 	add	x16, x16, #0x3c0
   3c4fc:	d61f0220 	br	x17

000000000003c500 <apr_socket_inherit_set@plt>:
   3c500:	d0000430 	adrp	x16, c2000 <apr_os_thread_put>
   3c504:	f941e611 	ldr	x17, [x16, #968]
   3c508:	910f2210 	add	x16, x16, #0x3c8
   3c50c:	d61f0220 	br	x17

000000000003c510 <apr_pool_create_core_ex@plt>:
   3c510:	d0000430 	adrp	x16, c2000 <apr_os_thread_put>
   3c514:	f941ea11 	ldr	x17, [x16, #976]
   3c518:	910f4210 	add	x16, x16, #0x3d0
   3c51c:	d61f0220 	br	x17

000000000003c520 <apr_global_mutex_child_init@plt>:
   3c520:	d0000430 	adrp	x16, c2000 <apr_os_thread_put>
   3c524:	f941ee11 	ldr	x17, [x16, #984]
   3c528:	910f6210 	add	x16, x16, #0x3d8
   3c52c:	d61f0220 	br	x17

000000000003c530 <apr_proc_other_child_unregister@plt>:
   3c530:	d0000430 	adrp	x16, c2000 <apr_os_thread_put>
   3c534:	f941f211 	ldr	x17, [x16, #992]
   3c538:	910f8210 	add	x16, x16, #0x3e0
   3c53c:	d61f0220 	br	x17

000000000003c540 <apr_os_threadkey_put@plt>:
   3c540:	d0000430 	adrp	x16, c2000 <apr_os_thread_put>
   3c544:	f941f611 	ldr	x17, [x16, #1000]
   3c548:	910fa210 	add	x16, x16, #0x3e8
   3c54c:	d61f0220 	br	x17

000000000003c550 <apr_table_copy@plt>:
   3c550:	d0000430 	adrp	x16, c2000 <apr_os_thread_put>
   3c554:	f941fa11 	ldr	x17, [x16, #1008]
   3c558:	910fc210 	add	x16, x16, #0x3f0
   3c55c:	d61f0220 	br	x17

000000000003c560 <apr_dbd_num_cols@plt>:
   3c560:	d0000430 	adrp	x16, c2000 <apr_os_thread_put>
   3c564:	f941fe11 	ldr	x17, [x16, #1016]
   3c568:	910fe210 	add	x16, x16, #0x3f8
   3c56c:	d61f0220 	br	x17

000000000003c570 <pthread_kill@plt>:
   3c570:	d0000430 	adrp	x16, c2000 <apr_os_thread_put>
   3c574:	f9420211 	ldr	x17, [x16, #1024]
   3c578:	91100210 	add	x16, x16, #0x400
   3c57c:	d61f0220 	br	x17

000000000003c580 <apr_hash_clear@plt>:
   3c580:	d0000430 	adrp	x16, c2000 <apr_os_thread_put>
   3c584:	f9420611 	ldr	x17, [x16, #1032]
   3c588:	91102210 	add	x16, x16, #0x408
   3c58c:	d61f0220 	br	x17

000000000003c590 <apr_table_overlay@plt>:
   3c590:	d0000430 	adrp	x16, c2000 <apr_os_thread_put>
   3c594:	f9420a11 	ldr	x17, [x16, #1040]
   3c598:	91104210 	add	x16, x16, #0x410
   3c59c:	d61f0220 	br	x17

000000000003c5a0 <apr_env_set@plt>:
   3c5a0:	d0000430 	adrp	x16, c2000 <apr_os_thread_put>
   3c5a4:	f9420e11 	ldr	x17, [x16, #1048]
   3c5a8:	91106210 	add	x16, x16, #0x418
   3c5ac:	d61f0220 	br	x17

000000000003c5b0 <apr_skiplist_pop@plt>:
   3c5b0:	d0000430 	adrp	x16, c2000 <apr_os_thread_put>
   3c5b4:	f9421211 	ldr	x17, [x16, #1056]
   3c5b8:	91108210 	add	x16, x16, #0x420
   3c5bc:	d61f0220 	br	x17

000000000003c5c0 <apr_parse_addr_port@plt>:
   3c5c0:	d0000430 	adrp	x16, c2000 <apr_os_thread_put>
   3c5c4:	f9421611 	ldr	x17, [x16, #1064]
   3c5c8:	9110a210 	add	x16, x16, #0x428
   3c5cc:	d61f0220 	br	x17

000000000003c5d0 <strspn@plt>:
   3c5d0:	d0000430 	adrp	x16, c2000 <apr_os_thread_put>
   3c5d4:	f9421a11 	ldr	x17, [x16, #1072]
   3c5d8:	9110c210 	add	x16, x16, #0x430
   3c5dc:	d61f0220 	br	x17

000000000003c5e0 <apr_allocator_destroy@plt>:
   3c5e0:	d0000430 	adrp	x16, c2000 <apr_os_thread_put>
   3c5e4:	f9421e11 	ldr	x17, [x16, #1080]
   3c5e8:	9110e210 	add	x16, x16, #0x438
   3c5ec:	d61f0220 	br	x17

000000000003c5f0 <apr_sdbm_rdonly@plt>:
   3c5f0:	d0000430 	adrp	x16, c2000 <apr_os_thread_put>
   3c5f4:	f9422211 	ldr	x17, [x16, #1088]
   3c5f8:	91110210 	add	x16, x16, #0x440
   3c5fc:	d61f0220 	br	x17

000000000003c600 <apr_thread_cond_broadcast@plt>:
   3c600:	d0000430 	adrp	x16, c2000 <apr_os_thread_put>
   3c604:	f9422611 	ldr	x17, [x16, #1096]
   3c608:	91112210 	add	x16, x16, #0x448
   3c60c:	d61f0220 	br	x17

000000000003c610 <apr_table_clear@plt>:
   3c610:	d0000430 	adrp	x16, c2000 <apr_os_thread_put>
   3c614:	f9422a11 	ldr	x17, [x16, #1104]
   3c618:	91114210 	add	x16, x16, #0x450
   3c61c:	d61f0220 	br	x17

000000000003c620 <apr_brigade_write@plt>:
   3c620:	d0000430 	adrp	x16, c2000 <apr_os_thread_put>
   3c624:	f9422e11 	ldr	x17, [x16, #1112]
   3c628:	91116210 	add	x16, x16, #0x458
   3c62c:	d61f0220 	br	x17

000000000003c630 <apr_sockaddr_is_wildcard@plt>:
   3c630:	d0000430 	adrp	x16, c2000 <apr_os_thread_put>
   3c634:	f9423211 	ldr	x17, [x16, #1120]
   3c638:	91118210 	add	x16, x16, #0x460
   3c63c:	d61f0220 	br	x17

000000000003c640 <apr_pdecode_base16@plt>:
   3c640:	d0000430 	adrp	x16, c2000 <apr_os_thread_put>
   3c644:	f9423611 	ldr	x17, [x16, #1128]
   3c648:	9111a210 	add	x16, x16, #0x468
   3c64c:	d61f0220 	br	x17

000000000003c650 <apr_file_putc@plt>:
   3c650:	d0000430 	adrp	x16, c2000 <apr_os_thread_put>
   3c654:	f9423a11 	ldr	x17, [x16, #1136]
   3c658:	9111c210 	add	x16, x16, #0x470
   3c65c:	d61f0220 	br	x17

000000000003c660 <apr_time_exp_gmt_get@plt>:
   3c660:	d0000430 	adrp	x16, c2000 <apr_os_thread_put>
   3c664:	f9423e11 	ldr	x17, [x16, #1144]
   3c668:	9111e210 	add	x16, x16, #0x478
   3c66c:	d61f0220 	br	x17

000000000003c670 <apr_cstr_atoi@plt>:
   3c670:	d0000430 	adrp	x16, c2000 <apr_os_thread_put>
   3c674:	f9424211 	ldr	x17, [x16, #1152]
   3c678:	91120210 	add	x16, x16, #0x480
   3c67c:	d61f0220 	br	x17

000000000003c680 <strchr@plt>:
   3c680:	d0000430 	adrp	x16, c2000 <apr_os_thread_put>
   3c684:	f9424611 	ldr	x17, [x16, #1160]
   3c688:	91122210 	add	x16, x16, #0x488
   3c68c:	d61f0220 	br	x17

000000000003c690 <apr_sockaddr_info_get@plt>:
   3c690:	d0000430 	adrp	x16, c2000 <apr_os_thread_put>
   3c694:	f9424a11 	ldr	x17, [x16, #1168]
   3c698:	91124210 	add	x16, x16, #0x490
   3c69c:	d61f0220 	br	x17

000000000003c6a0 <apr_uri_parse@plt>:
   3c6a0:	d0000430 	adrp	x16, c2000 <apr_os_thread_put>
   3c6a4:	f9424e11 	ldr	x17, [x16, #1176]
   3c6a8:	91126210 	add	x16, x16, #0x498
   3c6ac:	d61f0220 	br	x17

000000000003c6b0 <apr_array_push@plt>:
   3c6b0:	d0000430 	adrp	x16, c2000 <apr_os_thread_put>
   3c6b4:	f9425211 	ldr	x17, [x16, #1184]
   3c6b8:	91128210 	add	x16, x16, #0x4a0
   3c6bc:	d61f0220 	br	x17

000000000003c6c0 <apr_pool_initialize@plt>:
   3c6c0:	d0000430 	adrp	x16, c2000 <apr_os_thread_put>
   3c6c4:	f9425611 	ldr	x17, [x16, #1192]
   3c6c8:	9112a210 	add	x16, x16, #0x4a8
   3c6cc:	d61f0220 	br	x17

000000000003c6d0 <apr_pool_destroy@plt>:
   3c6d0:	d0000430 	adrp	x16, c2000 <apr_os_thread_put>
   3c6d4:	f9425a11 	ldr	x17, [x16, #1200]
   3c6d8:	9112c210 	add	x16, x16, #0x4b0
   3c6dc:	d61f0220 	br	x17

000000000003c6e0 <apr_memcache_add@plt>:
   3c6e0:	d0000430 	adrp	x16, c2000 <apr_os_thread_put>
   3c6e4:	f9425e11 	ldr	x17, [x16, #1208]
   3c6e8:	9112e210 	add	x16, x16, #0x4b8
   3c6ec:	d61f0220 	br	x17

000000000003c6f0 <apr_skiplist_getlist@plt>:
   3c6f0:	d0000430 	adrp	x16, c2000 <apr_os_thread_put>
   3c6f4:	f9426211 	ldr	x17, [x16, #1216]
   3c6f8:	91130210 	add	x16, x16, #0x4c0
   3c6fc:	d61f0220 	br	x17

000000000003c700 <apr_uid_homepath_get@plt>:
   3c700:	d0000430 	adrp	x16, c2000 <apr_os_thread_put>
   3c704:	f9426611 	ldr	x17, [x16, #1224]
   3c708:	91132210 	add	x16, x16, #0x4c8
   3c70c:	d61f0220 	br	x17

000000000003c710 <apr_stat@plt>:
   3c710:	d0000430 	adrp	x16, c2000 <apr_os_thread_put>
   3c714:	f9426a11 	ldr	x17, [x16, #1232]
   3c718:	91134210 	add	x16, x16, #0x4d0
   3c71c:	d61f0220 	br	x17

000000000003c720 <apr_shm_remove@plt>:
   3c720:	d0000430 	adrp	x16, c2000 <apr_os_thread_put>
   3c724:	f9426e11 	ldr	x17, [x16, #1240]
   3c728:	91136210 	add	x16, x16, #0x4d8
   3c72c:	d61f0220 	br	x17

000000000003c730 <apr_random_insecure_bytes@plt>:
   3c730:	d0000430 	adrp	x16, c2000 <apr_os_thread_put>
   3c734:	f9427211 	ldr	x17, [x16, #1248]
   3c738:	91138210 	add	x16, x16, #0x4e0
   3c73c:	d61f0220 	br	x17

000000000003c740 <apr_fnmatch@plt>:
   3c740:	d0000430 	adrp	x16, c2000 <apr_os_thread_put>
   3c744:	f9427611 	ldr	x17, [x16, #1256]
   3c748:	9113a210 	add	x16, x16, #0x4e8
   3c74c:	d61f0220 	br	x17

000000000003c750 <apr_file_pipe_create_pools@plt>:
   3c750:	d0000430 	adrp	x16, c2000 <apr_os_thread_put>
   3c754:	f9427a11 	ldr	x17, [x16, #1264]
   3c758:	9113c210 	add	x16, x16, #0x4f0
   3c75c:	d61f0220 	br	x17

000000000003c760 <apr_strnatcmp@plt>:
   3c760:	d0000430 	adrp	x16, c2000 <apr_os_thread_put>
   3c764:	f9427e11 	ldr	x17, [x16, #1272]
   3c768:	9113e210 	add	x16, x16, #0x4f8
   3c76c:	d61f0220 	br	x17

000000000003c770 <apr_procattr_child_out_set@plt>:
   3c770:	d0000430 	adrp	x16, c2000 <apr_os_thread_put>
   3c774:	f9428211 	ldr	x17, [x16, #1280]
   3c778:	91140210 	add	x16, x16, #0x500
   3c77c:	d61f0220 	br	x17

000000000003c780 <apr_pollcb_remove@plt>:
   3c780:	d0000430 	adrp	x16, c2000 <apr_os_thread_put>
   3c784:	f9428611 	ldr	x17, [x16, #1288]
   3c788:	91142210 	add	x16, x16, #0x508
   3c78c:	d61f0220 	br	x17

000000000003c790 <apr_xlate_close@plt>:
   3c790:	d0000430 	adrp	x16, c2000 <apr_os_thread_put>
   3c794:	f9428a11 	ldr	x17, [x16, #1296]
   3c798:	91144210 	add	x16, x16, #0x510
   3c79c:	d61f0220 	br	x17

000000000003c7a0 <apr_escape_shell@plt>:
   3c7a0:	d0000430 	adrp	x16, c2000 <apr_os_thread_put>
   3c7a4:	f9428e11 	ldr	x17, [x16, #1304]
   3c7a8:	91146210 	add	x16, x16, #0x518
   3c7ac:	d61f0220 	br	x17

000000000003c7b0 <apr_redis_setex@plt>:
   3c7b0:	d0000430 	adrp	x16, c2000 <apr_os_thread_put>
   3c7b4:	f9429211 	ldr	x17, [x16, #1312]
   3c7b8:	91148210 	add	x16, x16, #0x520
   3c7bc:	d61f0220 	br	x17

000000000003c7c0 <apr_os_dir_get@plt>:
   3c7c0:	d0000430 	adrp	x16, c2000 <apr_os_thread_put>
   3c7c4:	f9429611 	ldr	x17, [x16, #1320]
   3c7c8:	9114a210 	add	x16, x16, #0x528
   3c7cc:	d61f0220 	br	x17

000000000003c7d0 <apr_thread_yield@plt>:
   3c7d0:	d0000430 	adrp	x16, c2000 <apr_os_thread_put>
   3c7d4:	f9429a11 	ldr	x17, [x16, #1328]
   3c7d8:	9114c210 	add	x16, x16, #0x530
   3c7dc:	d61f0220 	br	x17

000000000003c7e0 <apr_dbm_open_ex@plt>:
   3c7e0:	d0000430 	adrp	x16, c2000 <apr_os_thread_put>
   3c7e4:	f9429e11 	ldr	x17, [x16, #1336]
   3c7e8:	9114e210 	add	x16, x16, #0x538
   3c7ec:	d61f0220 	br	x17

000000000003c7f0 <apr_brigade_to_iovec@plt>:
   3c7f0:	d0000430 	adrp	x16, c2000 <apr_os_thread_put>
   3c7f4:	f942a211 	ldr	x17, [x16, #1344]
   3c7f8:	91150210 	add	x16, x16, #0x540
   3c7fc:	d61f0220 	br	x17

000000000003c800 <times@plt>:
   3c800:	d0000430 	adrp	x16, c2000 <apr_os_thread_put>
   3c804:	f942a611 	ldr	x17, [x16, #1352]
   3c808:	91152210 	add	x16, x16, #0x548
   3c80c:	d61f0220 	br	x17

000000000003c810 <apr_date_parse_rfc@plt>:
   3c810:	d0000430 	adrp	x16, c2000 <apr_os_thread_put>
   3c814:	f942aa11 	ldr	x17, [x16, #1360]
   3c818:	91154210 	add	x16, x16, #0x550
   3c81c:	d61f0220 	br	x17

000000000003c820 <apr_hash_pool_get@plt>:
   3c820:	d0000430 	adrp	x16, c2000 <apr_os_thread_put>
   3c824:	f942ae11 	ldr	x17, [x16, #1368]
   3c828:	91156210 	add	x16, x16, #0x558
   3c82c:	d61f0220 	br	x17

000000000003c830 <__syslog_chk@plt>:
   3c830:	d0000430 	adrp	x16, c2000 <apr_os_thread_put>
   3c834:	f942b211 	ldr	x17, [x16, #1376]
   3c838:	91158210 	add	x16, x16, #0x560
   3c83c:	d61f0220 	br	x17

000000000003c840 <apr_memcache_server_create@plt>:
   3c840:	d0000430 	adrp	x16, c2000 <apr_os_thread_put>
   3c844:	f942b611 	ldr	x17, [x16, #1384]
   3c848:	9115a210 	add	x16, x16, #0x568
   3c84c:	d61f0220 	br	x17

000000000003c850 <apr_shm_detach@plt>:
   3c850:	d0000430 	adrp	x16, c2000 <apr_os_thread_put>
   3c854:	f942ba11 	ldr	x17, [x16, #1392]
   3c858:	9115c210 	add	x16, x16, #0x570
   3c85c:	d61f0220 	br	x17

000000000003c860 <apr_file_open@plt>:
   3c860:	d0000430 	adrp	x16, c2000 <apr_os_thread_put>
   3c864:	f942be11 	ldr	x17, [x16, #1400]
   3c868:	9115e210 	add	x16, x16, #0x578
   3c86c:	d61f0220 	br	x17

000000000003c870 <apr_thread_pool_threads_count@plt>:
   3c870:	d0000430 	adrp	x16, c2000 <apr_os_thread_put>
   3c874:	f942c211 	ldr	x17, [x16, #1408]
   3c878:	91160210 	add	x16, x16, #0x580
   3c87c:	d61f0220 	br	x17

000000000003c880 <apr_os_thread_equal@plt>:
   3c880:	d0000430 	adrp	x16, c2000 <apr_os_thread_put>
   3c884:	f942c611 	ldr	x17, [x16, #1416]
   3c888:	91162210 	add	x16, x16, #0x588
   3c88c:	d61f0220 	br	x17

000000000003c890 <apr_version@plt>:
   3c890:	d0000430 	adrp	x16, c2000 <apr_os_thread_put>
   3c894:	f942ca11 	ldr	x17, [x16, #1424]
   3c898:	91164210 	add	x16, x16, #0x590
   3c89c:	d61f0220 	br	x17

000000000003c8a0 <apr_dir_close@plt>:
   3c8a0:	d0000430 	adrp	x16, c2000 <apr_os_thread_put>
   3c8a4:	f942ce11 	ldr	x17, [x16, #1432]
   3c8a8:	91166210 	add	x16, x16, #0x598
   3c8ac:	d61f0220 	br	x17

000000000003c8b0 <apr_thread_data_set@plt>:
   3c8b0:	d0000430 	adrp	x16, c2000 <apr_os_thread_put>
   3c8b4:	f942d211 	ldr	x17, [x16, #1440]
   3c8b8:	91168210 	add	x16, x16, #0x5a0
   3c8bc:	d61f0220 	br	x17

000000000003c8c0 <apr_socket_sendto@plt>:
   3c8c0:	d0000430 	adrp	x16, c2000 <apr_os_thread_put>
   3c8c4:	f942d611 	ldr	x17, [x16, #1448]
   3c8c8:	9116a210 	add	x16, x16, #0x5a8
   3c8cc:	d61f0220 	br	x17

000000000003c8d0 <apr_filepath_list_split@plt>:
   3c8d0:	d0000430 	adrp	x16, c2000 <apr_os_thread_put>
   3c8d4:	f942da11 	ldr	x17, [x16, #1456]
   3c8d8:	9116c210 	add	x16, x16, #0x5b0
   3c8dc:	d61f0220 	br	x17

000000000003c8e0 <apr_xlate_open@plt>:
   3c8e0:	d0000430 	adrp	x16, c2000 <apr_os_thread_put>
   3c8e4:	f942de11 	ldr	x17, [x16, #1464]
   3c8e8:	9116e210 	add	x16, x16, #0x5b8
   3c8ec:	d61f0220 	br	x17

000000000003c8f0 <apr_pool_create_core_ex_debug@plt>:
   3c8f0:	d0000430 	adrp	x16, c2000 <apr_os_thread_put>
   3c8f4:	f942e211 	ldr	x17, [x16, #1472]
   3c8f8:	91170210 	add	x16, x16, #0x5c0
   3c8fc:	d61f0220 	br	x17

000000000003c900 <apr_file_data_get@plt>:
   3c900:	d0000430 	adrp	x16, c2000 <apr_os_thread_put>
   3c904:	f942e611 	ldr	x17, [x16, #1480]
   3c908:	91172210 	add	x16, x16, #0x5c8
   3c90c:	d61f0220 	br	x17

000000000003c910 <apr_file_puts@plt>:
   3c910:	d0000430 	adrp	x16, c2000 <apr_os_thread_put>
   3c914:	f942ea11 	ldr	x17, [x16, #1488]
   3c918:	91174210 	add	x16, x16, #0x5d0
   3c91c:	d61f0220 	br	x17

000000000003c920 <apr_bucket_shared_make@plt>:
   3c920:	d0000430 	adrp	x16, c2000 <apr_os_thread_put>
   3c924:	f942ee11 	ldr	x17, [x16, #1496]
   3c928:	91176210 	add	x16, x16, #0x5d8
   3c92c:	d61f0220 	br	x17

000000000003c930 <strcpy@plt>:
   3c930:	d0000430 	adrp	x16, c2000 <apr_os_thread_put>
   3c934:	f942f211 	ldr	x17, [x16, #1504]
   3c938:	91178210 	add	x16, x16, #0x5e0
   3c93c:	d61f0220 	br	x17

000000000003c940 <apr_bucket_mmap_create@plt>:
   3c940:	d0000430 	adrp	x16, c2000 <apr_os_thread_put>
   3c944:	f942f611 	ldr	x17, [x16, #1512]
   3c948:	9117a210 	add	x16, x16, #0x5e8
   3c94c:	d61f0220 	br	x17

000000000003c950 <getrlimit@plt>:
   3c950:	d0000430 	adrp	x16, c2000 <apr_os_thread_put>
   3c954:	f942fa11 	ldr	x17, [x16, #1520]
   3c958:	9117c210 	add	x16, x16, #0x5f0
   3c95c:	d61f0220 	br	x17

000000000003c960 <apr_socket_listen@plt>:
   3c960:	d0000430 	adrp	x16, c2000 <apr_os_thread_put>
   3c964:	f942fe11 	ldr	x17, [x16, #1528]
   3c968:	9117e210 	add	x16, x16, #0x5f8
   3c96c:	d61f0220 	br	x17

000000000003c970 <apr_skiplist_find@plt>:
   3c970:	d0000430 	adrp	x16, c2000 <apr_os_thread_put>
   3c974:	f9430211 	ldr	x17, [x16, #1536]
   3c978:	91180210 	add	x16, x16, #0x600
   3c97c:	d61f0220 	br	x17

000000000003c980 <apr_reslist_cleanup_order_set@plt>:
   3c980:	d0000430 	adrp	x16, c2000 <apr_os_thread_put>
   3c984:	f9430611 	ldr	x17, [x16, #1544]
   3c988:	91182210 	add	x16, x16, #0x608
   3c98c:	d61f0220 	br	x17

000000000003c990 <apr_redis_server_create@plt>:
   3c990:	d0000430 	adrp	x16, c2000 <apr_os_thread_put>
   3c994:	f9430a11 	ldr	x17, [x16, #1552]
   3c998:	91184210 	add	x16, x16, #0x610
   3c99c:	d61f0220 	br	x17

000000000003c9a0 <apr_bucket_setaside_noop@plt>:
   3c9a0:	d0000430 	adrp	x16, c2000 <apr_os_thread_put>
   3c9a4:	f9430e11 	ldr	x17, [x16, #1560]
   3c9a8:	91186210 	add	x16, x16, #0x618
   3c9ac:	d61f0220 	br	x17

000000000003c9b0 <apr_thread_create@plt>:
   3c9b0:	d0000430 	adrp	x16, c2000 <apr_os_thread_put>
   3c9b4:	f9431211 	ldr	x17, [x16, #1568]
   3c9b8:	91188210 	add	x16, x16, #0x620
   3c9bc:	d61f0220 	br	x17

000000000003c9c0 <apr_pollset_poll@plt>:
   3c9c0:	d0000430 	adrp	x16, c2000 <apr_os_thread_put>
   3c9c4:	f9431611 	ldr	x17, [x16, #1576]
   3c9c8:	9118a210 	add	x16, x16, #0x628
   3c9cc:	d61f0220 	br	x17

000000000003c9d0 <apr_bucket_alloc_create_ex@plt>:
   3c9d0:	d0000430 	adrp	x16, c2000 <apr_os_thread_put>
   3c9d4:	f9431a11 	ldr	x17, [x16, #1584]
   3c9d8:	9118c210 	add	x16, x16, #0x630
   3c9dc:	d61f0220 	br	x17

000000000003c9e0 <apr_memcache_getp@plt>:
   3c9e0:	d0000430 	adrp	x16, c2000 <apr_os_thread_put>
   3c9e4:	f9431e11 	ldr	x17, [x16, #1592]
   3c9e8:	9118e210 	add	x16, x16, #0x638
   3c9ec:	d61f0220 	br	x17

000000000003c9f0 <apr_random_secure_ready@plt>:
   3c9f0:	d0000430 	adrp	x16, c2000 <apr_os_thread_put>
   3c9f4:	f9432211 	ldr	x17, [x16, #1600]
   3c9f8:	91190210 	add	x16, x16, #0x640
   3c9fc:	d61f0220 	br	x17

000000000003ca00 <apr_proc_kill@plt>:
   3ca00:	d0000430 	adrp	x16, c2000 <apr_os_thread_put>
   3ca04:	f9432611 	ldr	x17, [x16, #1608]
   3ca08:	91192210 	add	x16, x16, #0x648
   3ca0c:	d61f0220 	br	x17

000000000003ca10 <apr_uid_name_get@plt>:
   3ca10:	d0000430 	adrp	x16, c2000 <apr_os_thread_put>
   3ca14:	f9432a11 	ldr	x17, [x16, #1616]
   3ca18:	91194210 	add	x16, x16, #0x650
   3ca1c:	d61f0220 	br	x17

000000000003ca20 <apr_random_init@plt>:
   3ca20:	d0000430 	adrp	x16, c2000 <apr_os_thread_put>
   3ca24:	f9432e11 	ldr	x17, [x16, #1624]
   3ca28:	91196210 	add	x16, x16, #0x658
   3ca2c:	d61f0220 	br	x17

000000000003ca30 <apr_table_make@plt>:
   3ca30:	d0000430 	adrp	x16, c2000 <apr_os_thread_put>
   3ca34:	f9433211 	ldr	x17, [x16, #1632]
   3ca38:	91198210 	add	x16, x16, #0x660
   3ca3c:	d61f0220 	br	x17

000000000003ca40 <apr_proc_detach@plt>:
   3ca40:	d0000430 	adrp	x16, c2000 <apr_os_thread_put>
   3ca44:	f9433611 	ldr	x17, [x16, #1640]
   3ca48:	9119a210 	add	x16, x16, #0x668
   3ca4c:	d61f0220 	br	x17

000000000003ca50 <apr_dir_make_recursive@plt>:
   3ca50:	d0000430 	adrp	x16, c2000 <apr_os_thread_put>
   3ca54:	f9433a11 	ldr	x17, [x16, #1648]
   3ca58:	9119c210 	add	x16, x16, #0x670
   3ca5c:	d61f0220 	br	x17

000000000003ca60 <apr_thread_exit@plt>:
   3ca60:	d0000430 	adrp	x16, c2000 <apr_os_thread_put>
   3ca64:	f9433e11 	ldr	x17, [x16, #1656]
   3ca68:	9119e210 	add	x16, x16, #0x678
   3ca6c:	d61f0220 	br	x17

000000000003ca70 <apr_file_open_flags_stderr@plt>:
   3ca70:	d0000430 	adrp	x16, c2000 <apr_os_thread_put>
   3ca74:	f9434211 	ldr	x17, [x16, #1664]
   3ca78:	911a0210 	add	x16, x16, #0x680
   3ca7c:	d61f0220 	br	x17

000000000003ca80 <apr_bucket_copy_notimpl@plt>:
   3ca80:	d0000430 	adrp	x16, c2000 <apr_os_thread_put>
   3ca84:	f9434611 	ldr	x17, [x16, #1672]
   3ca88:	911a2210 	add	x16, x16, #0x688
   3ca8c:	d61f0220 	br	x17

000000000003ca90 <apr_memcache_version@plt>:
   3ca90:	d0000430 	adrp	x16, c2000 <apr_os_thread_put>
   3ca94:	f9434a11 	ldr	x17, [x16, #1680]
   3ca98:	911a4210 	add	x16, x16, #0x690
   3ca9c:	d61f0220 	br	x17

000000000003caa0 <apr_md5_set_xlate@plt>:
   3caa0:	d0000430 	adrp	x16, c2000 <apr_os_thread_put>
   3caa4:	f9434e11 	ldr	x17, [x16, #1688]
   3caa8:	911a6210 	add	x16, x16, #0x698
   3caac:	d61f0220 	br	x17

000000000003cab0 <apr_memcache_replace@plt>:
   3cab0:	d0000430 	adrp	x16, c2000 <apr_os_thread_put>
   3cab4:	f9435211 	ldr	x17, [x16, #1696]
   3cab8:	911a8210 	add	x16, x16, #0x6a0
   3cabc:	d61f0220 	br	x17

000000000003cac0 <apr_pollcb_poll@plt>:
   3cac0:	d0000430 	adrp	x16, c2000 <apr_os_thread_put>
   3cac4:	f9435611 	ldr	x17, [x16, #1704]
   3cac8:	911aa210 	add	x16, x16, #0x6a8
   3cacc:	d61f0220 	br	x17

000000000003cad0 <apr_escape_entity@plt>:
   3cad0:	d0000430 	adrp	x16, c2000 <apr_os_thread_put>
   3cad4:	f9435a11 	ldr	x17, [x16, #1712]
   3cad8:	911ac210 	add	x16, x16, #0x6b0
   3cadc:	d61f0220 	br	x17

000000000003cae0 <apr_dbd_get_row@plt>:
   3cae0:	d0000430 	adrp	x16, c2000 <apr_os_thread_put>
   3cae4:	f9435e11 	ldr	x17, [x16, #1720]
   3cae8:	911ae210 	add	x16, x16, #0x6b8
   3caec:	d61f0220 	br	x17

000000000003caf0 <apr_memcache_add_multget_key@plt>:
   3caf0:	d0000430 	adrp	x16, c2000 <apr_os_thread_put>
   3caf4:	f9436211 	ldr	x17, [x16, #1728]
   3caf8:	911b0210 	add	x16, x16, #0x6c0
   3cafc:	d61f0220 	br	x17

000000000003cb00 <apr_redis_add_server@plt>:
   3cb00:	d0000430 	adrp	x16, c2000 <apr_os_thread_put>
   3cb04:	f9436611 	ldr	x17, [x16, #1736]
   3cb08:	911b2210 	add	x16, x16, #0x6c8
   3cb0c:	d61f0220 	br	x17

000000000003cb10 <apr_redis_decr@plt>:
   3cb10:	d0000430 	adrp	x16, c2000 <apr_os_thread_put>
   3cb14:	f9436a11 	ldr	x17, [x16, #1744]
   3cb18:	911b4210 	add	x16, x16, #0x6d0
   3cb1c:	d61f0220 	br	x17

000000000003cb20 <apr_redis_version@plt>:
   3cb20:	d0000430 	adrp	x16, c2000 <apr_os_thread_put>
   3cb24:	f9436e11 	ldr	x17, [x16, #1752]
   3cb28:	911b6210 	add	x16, x16, #0x6d8
   3cb2c:	d61f0220 	br	x17

000000000003cb30 <apr_cstr_count_newlines@plt>:
   3cb30:	d0000430 	adrp	x16, c2000 <apr_os_thread_put>
   3cb34:	f9437211 	ldr	x17, [x16, #1760]
   3cb38:	911b8210 	add	x16, x16, #0x6e0
   3cb3c:	d61f0220 	br	x17

000000000003cb40 <apr_proc_other_child_register@plt>:
   3cb40:	d0000430 	adrp	x16, c2000 <apr_os_thread_put>
   3cb44:	f9437611 	ldr	x17, [x16, #1768]
   3cb48:	911ba210 	add	x16, x16, #0x6e8
   3cb4c:	d61f0220 	br	x17

000000000003cb50 <apr_brigade_vputstrs@plt>:
   3cb50:	d0000430 	adrp	x16, c2000 <apr_os_thread_put>
   3cb54:	f9437a11 	ldr	x17, [x16, #1776]
   3cb58:	911bc210 	add	x16, x16, #0x6f0
   3cb5c:	d61f0220 	br	x17

000000000003cb60 <read@plt>:
   3cb60:	d0000430 	adrp	x16, c2000 <apr_os_thread_put>
   3cb64:	f9437e11 	ldr	x17, [x16, #1784]
   3cb68:	911be210 	add	x16, x16, #0x6f8
   3cb6c:	d61f0220 	br	x17

000000000003cb70 <apr_os_dso_handle_get@plt>:
   3cb70:	d0000430 	adrp	x16, c2000 <apr_os_thread_put>
   3cb74:	f9438211 	ldr	x17, [x16, #1792]
   3cb78:	911c0210 	add	x16, x16, #0x700
   3cb7c:	d61f0220 	br	x17

000000000003cb80 <apr_sdbm_delete@plt>:
   3cb80:	d0000430 	adrp	x16, c2000 <apr_os_thread_put>
   3cb84:	f9438611 	ldr	x17, [x16, #1800]
   3cb88:	911c2210 	add	x16, x16, #0x708
   3cb8c:	d61f0220 	br	x17

000000000003cb90 <apr_pdecode_base16_binary@plt>:
   3cb90:	d0000430 	adrp	x16, c2000 <apr_os_thread_put>
   3cb94:	f9438a11 	ldr	x17, [x16, #1808]
   3cb98:	911c4210 	add	x16, x16, #0x710
   3cb9c:	d61f0220 	br	x17

000000000003cba0 <apr_pool_note_subprocess@plt>:
   3cba0:	d0000430 	adrp	x16, c2000 <apr_os_thread_put>
   3cba4:	f9438e11 	ldr	x17, [x16, #1816]
   3cba8:	911c6210 	add	x16, x16, #0x718
   3cbac:	d61f0220 	br	x17

000000000003cbb0 <apr_global_mutex_name@plt>:
   3cbb0:	d0000430 	adrp	x16, c2000 <apr_os_thread_put>
   3cbb4:	f9439211 	ldr	x17, [x16, #1824]
   3cbb8:	911c8210 	add	x16, x16, #0x720
   3cbbc:	d61f0220 	br	x17

000000000003cbc0 <apr_hook_sort_register@plt>:
   3cbc0:	d0000430 	adrp	x16, c2000 <apr_os_thread_put>
   3cbc4:	f9439611 	ldr	x17, [x16, #1832]
   3cbc8:	911ca210 	add	x16, x16, #0x728
   3cbcc:	d61f0220 	br	x17

000000000003cbd0 <apr_uri_parse_hostinfo@plt>:
   3cbd0:	d0000430 	adrp	x16, c2000 <apr_os_thread_put>
   3cbd4:	f9439a11 	ldr	x17, [x16, #1840]
   3cbd8:	911cc210 	add	x16, x16, #0x730
   3cbdc:	d61f0220 	br	x17

000000000003cbe0 <apr_rmm_addr_get@plt>:
   3cbe0:	d0000430 	adrp	x16, c2000 <apr_os_thread_put>
   3cbe4:	f9439e11 	ldr	x17, [x16, #1848]
   3cbe8:	911ce210 	add	x16, x16, #0x738
   3cbec:	d61f0220 	br	x17

000000000003cbf0 <apr_sdbm_close@plt>:
   3cbf0:	d0000430 	adrp	x16, c2000 <apr_os_thread_put>
   3cbf4:	f943a211 	ldr	x17, [x16, #1856]
   3cbf8:	911d0210 	add	x16, x16, #0x740
   3cbfc:	d61f0220 	br	x17

000000000003cc00 <sysconf@plt>:
   3cc00:	d0000430 	adrp	x16, c2000 <apr_os_thread_put>
   3cc04:	f943a611 	ldr	x17, [x16, #1864]
   3cc08:	911d2210 	add	x16, x16, #0x748
   3cc0c:	d61f0220 	br	x17

000000000003cc10 <apr_redis_enable_server@plt>:
   3cc10:	d0000430 	adrp	x16, c2000 <apr_os_thread_put>
   3cc14:	f943aa11 	ldr	x17, [x16, #1872]
   3cc18:	911d4210 	add	x16, x16, #0x750
   3cc1c:	d61f0220 	br	x17

000000000003cc20 <apr_proc_mutex_lockfile@plt>:
   3cc20:	d0000430 	adrp	x16, c2000 <apr_os_thread_put>
   3cc24:	f943ae11 	ldr	x17, [x16, #1880]
   3cc28:	911d6210 	add	x16, x16, #0x758
   3cc2c:	d61f0220 	br	x17

000000000003cc30 <apr_unescape_entity@plt>:
   3cc30:	d0000430 	adrp	x16, c2000 <apr_os_thread_put>
   3cc34:	f943b211 	ldr	x17, [x16, #1888]
   3cc38:	911d8210 	add	x16, x16, #0x760
   3cc3c:	d61f0220 	br	x17

000000000003cc40 <apr_brigade_split@plt>:
   3cc40:	d0000430 	adrp	x16, c2000 <apr_os_thread_put>
   3cc44:	f943b611 	ldr	x17, [x16, #1896]
   3cc48:	911da210 	add	x16, x16, #0x768
   3cc4c:	d61f0220 	br	x17

000000000003cc50 <apr_bucket_mmap_make@plt>:
   3cc50:	d0000430 	adrp	x16, c2000 <apr_os_thread_put>
   3cc54:	f943ba11 	ldr	x17, [x16, #1904]
   3cc58:	911dc210 	add	x16, x16, #0x770
   3cc5c:	d61f0220 	br	x17

000000000003cc60 <apr_pollset_add@plt>:
   3cc60:	d0000430 	adrp	x16, c2000 <apr_os_thread_put>
   3cc64:	f943be11 	ldr	x17, [x16, #1912]
   3cc68:	911de210 	add	x16, x16, #0x778
   3cc6c:	d61f0220 	br	x17

000000000003cc70 <apr_base64_encode_len@plt>:
   3cc70:	d0000430 	adrp	x16, c2000 <apr_os_thread_put>
   3cc74:	f943c211 	ldr	x17, [x16, #1920]
   3cc78:	911e0210 	add	x16, x16, #0x780
   3cc7c:	d61f0220 	br	x17

000000000003cc80 <apr_pool_userdata_set@plt>:
   3cc80:	d0000430 	adrp	x16, c2000 <apr_os_thread_put>
   3cc84:	f943c611 	ldr	x17, [x16, #1928]
   3cc88:	911e2210 	add	x16, x16, #0x788
   3cc8c:	d61f0220 	br	x17

000000000003cc90 <apr_thread_rwlock_wrlock@plt>:
   3cc90:	d0000430 	adrp	x16, c2000 <apr_os_thread_put>
   3cc94:	f943ca11 	ldr	x17, [x16, #1936]
   3cc98:	911e4210 	add	x16, x16, #0x790
   3cc9c:	d61f0220 	br	x17

000000000003cca0 <apr_rfc822_date@plt>:
   3cca0:	d0000430 	adrp	x16, c2000 <apr_os_thread_put>
   3cca4:	f943ce11 	ldr	x17, [x16, #1944]
   3cca8:	911e6210 	add	x16, x16, #0x798
   3ccac:	d61f0220 	br	x17

000000000003ccb0 <apr_shm_attach@plt>:
   3ccb0:	d0000430 	adrp	x16, c2000 <apr_os_thread_put>
   3ccb4:	f943d211 	ldr	x17, [x16, #1952]
   3ccb8:	911e8210 	add	x16, x16, #0x7a0
   3ccbc:	d61f0220 	br	x17

000000000003ccc0 <apr_dbd_get_entry@plt>:
   3ccc0:	d0000430 	adrp	x16, c2000 <apr_os_thread_put>
   3ccc4:	f943d611 	ldr	x17, [x16, #1960]
   3ccc8:	911ea210 	add	x16, x16, #0x7a8
   3cccc:	d61f0220 	br	x17

000000000003ccd0 <apr_pstrcat@plt>:
   3ccd0:	d0000430 	adrp	x16, c2000 <apr_os_thread_put>
   3ccd4:	f943da11 	ldr	x17, [x16, #1968]
   3ccd8:	911ec210 	add	x16, x16, #0x7b0
   3ccdc:	d61f0220 	br	x17

000000000003cce0 <apr_bucket_file_set_buf_size@plt>:
   3cce0:	d0000430 	adrp	x16, c2000 <apr_os_thread_put>
   3cce4:	f943de11 	ldr	x17, [x16, #1976]
   3cce8:	911ee210 	add	x16, x16, #0x7b8
   3ccec:	d61f0220 	br	x17

000000000003ccf0 <apr_bucket_eos_create@plt>:
   3ccf0:	d0000430 	adrp	x16, c2000 <apr_os_thread_put>
   3ccf4:	f943e211 	ldr	x17, [x16, #1984]
   3ccf8:	911f0210 	add	x16, x16, #0x7c0
   3ccfc:	d61f0220 	br	x17

000000000003cd00 <apr_sockaddr_equal@plt>:
   3cd00:	d0000430 	adrp	x16, c2000 <apr_os_thread_put>
   3cd04:	f943e611 	ldr	x17, [x16, #1992]
   3cd08:	911f2210 	add	x16, x16, #0x7c8
   3cd0c:	d61f0220 	br	x17

000000000003cd10 <apr_thread_pool_idle_max_set@plt>:
   3cd10:	d0000430 	adrp	x16, c2000 <apr_os_thread_put>
   3cd14:	f943ea11 	ldr	x17, [x16, #2000]
   3cd18:	911f4210 	add	x16, x16, #0x7d0
   3cd1c:	d61f0220 	br	x17

000000000003cd20 <apr_skiplist_size@plt>:
   3cd20:	d0000430 	adrp	x16, c2000 <apr_os_thread_put>
   3cd24:	f943ee11 	ldr	x17, [x16, #2008]
   3cd28:	911f6210 	add	x16, x16, #0x7d8
   3cd2c:	d61f0220 	br	x17

000000000003cd30 <apr_dbd_select@plt>:
   3cd30:	d0000430 	adrp	x16, c2000 <apr_os_thread_put>
   3cd34:	f943f211 	ldr	x17, [x16, #2016]
   3cd38:	911f8210 	add	x16, x16, #0x7e0
   3cd3c:	d61f0220 	br	x17

000000000003cd40 <apr_md5_final@plt>:
   3cd40:	d0000430 	adrp	x16, c2000 <apr_os_thread_put>
   3cd44:	f943f611 	ldr	x17, [x16, #2024]
   3cd48:	911fa210 	add	x16, x16, #0x7e8
   3cd4c:	d61f0220 	br	x17

000000000003cd50 <apr_dynamic_fn_register@plt>:
   3cd50:	d0000430 	adrp	x16, c2000 <apr_os_thread_put>
   3cd54:	f943fa11 	ldr	x17, [x16, #2032]
   3cd58:	911fc210 	add	x16, x16, #0x7f0
   3cd5c:	d61f0220 	br	x17

000000000003cd60 <apr_hash_merge@plt>:
   3cd60:	d0000430 	adrp	x16, c2000 <apr_os_thread_put>
   3cd64:	f943fe11 	ldr	x17, [x16, #2040]
   3cd68:	911fe210 	add	x16, x16, #0x7f8
   3cd6c:	d61f0220 	br	x17

000000000003cd70 <apr_dbd_get_driver@plt>:
   3cd70:	d0000430 	adrp	x16, c2000 <apr_os_thread_put>
   3cd74:	f9440211 	ldr	x17, [x16, #2048]
   3cd78:	91200210 	add	x16, x16, #0x800
   3cd7c:	d61f0220 	br	x17

000000000003cd80 <apr_thread_mutex_pool_get@plt>:
   3cd80:	d0000430 	adrp	x16, c2000 <apr_os_thread_put>
   3cd84:	f9440611 	ldr	x17, [x16, #2056]
   3cd88:	91202210 	add	x16, x16, #0x808
   3cd8c:	d61f0220 	br	x17

000000000003cd90 <apr_rmm_destroy@plt>:
   3cd90:	d0000430 	adrp	x16, c2000 <apr_os_thread_put>
   3cd94:	f9440a11 	ldr	x17, [x16, #2064]
   3cd98:	91204210 	add	x16, x16, #0x810
   3cd9c:	d61f0220 	br	x17

000000000003cda0 <apr_brigade_printf@plt>:
   3cda0:	d0000430 	adrp	x16, c2000 <apr_os_thread_put>
   3cda4:	f9440e11 	ldr	x17, [x16, #2072]
   3cda8:	91206210 	add	x16, x16, #0x818
   3cdac:	d61f0220 	br	x17

000000000003cdb0 <apr_pdecode_base64@plt>:
   3cdb0:	d0000430 	adrp	x16, c2000 <apr_os_thread_put>
   3cdb4:	f9441211 	ldr	x17, [x16, #2080]
   3cdb8:	91208210 	add	x16, x16, #0x820
   3cdbc:	d61f0220 	br	x17

000000000003cdc0 <apr_cstr_atoui64@plt>:
   3cdc0:	d0000430 	adrp	x16, c2000 <apr_os_thread_put>
   3cdc4:	f9441611 	ldr	x17, [x16, #2088]
   3cdc8:	9120a210 	add	x16, x16, #0x828
   3cdcc:	d61f0220 	br	x17

000000000003cdd0 <apr_siphash24@plt>:
   3cdd0:	d0000430 	adrp	x16, c2000 <apr_os_thread_put>
   3cdd4:	f9441a11 	ldr	x17, [x16, #2096]
   3cdd8:	9120c210 	add	x16, x16, #0x830
   3cddc:	d61f0220 	br	x17

000000000003cde0 <apr_siphash_auth@plt>:
   3cde0:	d0000430 	adrp	x16, c2000 <apr_os_thread_put>
   3cde4:	f9441e11 	ldr	x17, [x16, #2104]
   3cde8:	9120e210 	add	x16, x16, #0x838
   3cdec:	d61f0220 	br	x17

000000000003cdf0 <apr_proc_other_child_alert@plt>:
   3cdf0:	d0000430 	adrp	x16, c2000 <apr_os_thread_put>
   3cdf4:	f9442211 	ldr	x17, [x16, #2112]
   3cdf8:	91210210 	add	x16, x16, #0x840
   3cdfc:	d61f0220 	br	x17

000000000003ce00 <apr_pescape_hex@plt>:
   3ce00:	d0000430 	adrp	x16, c2000 <apr_os_thread_put>
   3ce04:	f9442611 	ldr	x17, [x16, #2120]
   3ce08:	91212210 	add	x16, x16, #0x848
   3ce0c:	d61f0220 	br	x17

000000000003ce10 <srand@plt>:
   3ce10:	d0000430 	adrp	x16, c2000 <apr_os_thread_put>
   3ce14:	f9442a11 	ldr	x17, [x16, #2128]
   3ce18:	91214210 	add	x16, x16, #0x850
   3ce1c:	d61f0220 	br	x17

000000000003ce20 <apr_xml_parse_file@plt>:
   3ce20:	d0000430 	adrp	x16, c2000 <apr_os_thread_put>
   3ce24:	f9442e11 	ldr	x17, [x16, #2136]
   3ce28:	91216210 	add	x16, x16, #0x858
   3ce2c:	d61f0220 	br	x17

000000000003ce30 <apr_proc_other_child_refresh_all@plt>:
   3ce30:	d0000430 	adrp	x16, c2000 <apr_os_thread_put>
   3ce34:	f9443211 	ldr	x17, [x16, #2144]
   3ce38:	91218210 	add	x16, x16, #0x860
   3ce3c:	d61f0220 	br	x17

000000000003ce40 <apr_proc_mutex_defname@plt>:
   3ce40:	d0000430 	adrp	x16, c2000 <apr_os_thread_put>
   3ce44:	f9443611 	ldr	x17, [x16, #2152]
   3ce48:	9121a210 	add	x16, x16, #0x868
   3ce4c:	d61f0220 	br	x17

000000000003ce50 <apr_atomic_xchgptr@plt>:
   3ce50:	d0000430 	adrp	x16, c2000 <apr_os_thread_put>
   3ce54:	f9443a11 	ldr	x17, [x16, #2160]
   3ce58:	9121c210 	add	x16, x16, #0x870
   3ce5c:	d61f0220 	br	x17

000000000003ce60 <strstr@plt>:
   3ce60:	d0000430 	adrp	x16, c2000 <apr_os_thread_put>
   3ce64:	f9443e11 	ldr	x17, [x16, #2168]
   3ce68:	9121e210 	add	x16, x16, #0x878
   3ce6c:	d61f0220 	br	x17

000000000003ce70 <apr_dbd_pbquery@plt>:
   3ce70:	d0000430 	adrp	x16, c2000 <apr_os_thread_put>
   3ce74:	f9444211 	ldr	x17, [x16, #2176]
   3ce78:	91220210 	add	x16, x16, #0x880
   3ce7c:	d61f0220 	br	x17

000000000003ce80 <apr_socket_sendfile@plt>:
   3ce80:	d0000430 	adrp	x16, c2000 <apr_os_thread_put>
   3ce84:	f9444611 	ldr	x17, [x16, #2184]
   3ce88:	91222210 	add	x16, x16, #0x888
   3ce8c:	d61f0220 	br	x17

000000000003ce90 <apr_os_dso_handle_put@plt>:
   3ce90:	d0000430 	adrp	x16, c2000 <apr_os_thread_put>
   3ce94:	f9444a11 	ldr	x17, [x16, #2192]
   3ce98:	91224210 	add	x16, x16, #0x890
   3ce9c:	d61f0220 	br	x17

000000000003cea0 <apr_filepath_get@plt>:
   3cea0:	d0000430 	adrp	x16, c2000 <apr_os_thread_put>
   3cea4:	f9444e11 	ldr	x17, [x16, #2200]
   3cea8:	91226210 	add	x16, x16, #0x898
   3ceac:	d61f0220 	br	x17

000000000003ceb0 <apr_decode_base32@plt>:
   3ceb0:	d0000430 	adrp	x16, c2000 <apr_os_thread_put>
   3ceb4:	f9445211 	ldr	x17, [x16, #2208]
   3ceb8:	91228210 	add	x16, x16, #0x8a0
   3cebc:	d61f0220 	br	x17

000000000003cec0 <apr_array_cat@plt>:
   3cec0:	d0000430 	adrp	x16, c2000 <apr_os_thread_put>
   3cec4:	f9445611 	ldr	x17, [x16, #2216]
   3cec8:	9122a210 	add	x16, x16, #0x8a8
   3cecc:	d61f0220 	br	x17

000000000003ced0 <apr_socket_timeout_get@plt>:
   3ced0:	d0000430 	adrp	x16, c2000 <apr_os_thread_put>
   3ced4:	f9445a11 	ldr	x17, [x16, #2224]
   3ced8:	9122c210 	add	x16, x16, #0x8b0
   3cedc:	d61f0220 	br	x17

000000000003cee0 <apr_proc_mutex_mech@plt>:
   3cee0:	d0000430 	adrp	x16, c2000 <apr_os_thread_put>
   3cee4:	f9445e11 	ldr	x17, [x16, #2232]
   3cee8:	9122e210 	add	x16, x16, #0x8b8
   3ceec:	d61f0220 	br	x17

000000000003cef0 <apr_os_locale_encoding@plt>:
   3cef0:	d0000430 	adrp	x16, c2000 <apr_os_thread_put>
   3cef4:	f9446211 	ldr	x17, [x16, #2240]
   3cef8:	91230210 	add	x16, x16, #0x8c0
   3cefc:	d61f0220 	br	x17

000000000003cf00 <apr_unescape_hex@plt>:
   3cf00:	d0000430 	adrp	x16, c2000 <apr_os_thread_put>
   3cf04:	f9446611 	ldr	x17, [x16, #2248]
   3cf08:	91232210 	add	x16, x16, #0x8c8
   3cf0c:	d61f0220 	br	x17

000000000003cf10 <__isoc99_sscanf@plt>:
   3cf10:	d0000430 	adrp	x16, c2000 <apr_os_thread_put>
   3cf14:	f9446a11 	ldr	x17, [x16, #2256]
   3cf18:	91234210 	add	x16, x16, #0x8d0
   3cf1c:	d61f0220 	br	x17

000000000003cf20 <apr_hash_next@plt>:
   3cf20:	d0000430 	adrp	x16, c2000 <apr_os_thread_put>
   3cf24:	f9446e11 	ldr	x17, [x16, #2264]
   3cf28:	91236210 	add	x16, x16, #0x8d8
   3cf2c:	d61f0220 	br	x17

000000000003cf30 <apr_gid_name_get@plt>:
   3cf30:	d0000430 	adrp	x16, c2000 <apr_os_thread_put>
   3cf34:	f9447211 	ldr	x17, [x16, #2272]
   3cf38:	91238210 	add	x16, x16, #0x8e0
   3cf3c:	d61f0220 	br	x17

000000000003cf40 <apr_pool_cleanup_for_exec@plt>:
   3cf40:	d0000430 	adrp	x16, c2000 <apr_os_thread_put>
   3cf44:	f9447611 	ldr	x17, [x16, #2280]
   3cf48:	9123a210 	add	x16, x16, #0x8e8
   3cf4c:	d61f0220 	br	x17

000000000003cf50 <apr_encode_base32_binary@plt>:
   3cf50:	d0000430 	adrp	x16, c2000 <apr_os_thread_put>
   3cf54:	f9447a11 	ldr	x17, [x16, #2288]
   3cf58:	9123c210 	add	x16, x16, #0x8f0
   3cf5c:	d61f0220 	br	x17

000000000003cf60 <apr_allocator_align@plt>:
   3cf60:	d0000430 	adrp	x16, c2000 <apr_os_thread_put>
   3cf64:	f9447e11 	ldr	x17, [x16, #2296]
   3cf68:	9123e210 	add	x16, x16, #0x8f8
   3cf6c:	d61f0220 	br	x17

000000000003cf70 <apr_pstrndup@plt>:
   3cf70:	d0000430 	adrp	x16, c2000 <apr_os_thread_put>
   3cf74:	f9448211 	ldr	x17, [x16, #2304]
   3cf78:	91240210 	add	x16, x16, #0x900
   3cf7c:	d61f0220 	br	x17

000000000003cf80 <apr_decode_base16_binary@plt>:
   3cf80:	d0000430 	adrp	x16, c2000 <apr_os_thread_put>
   3cf84:	f9448611 	ldr	x17, [x16, #2312]
   3cf88:	91242210 	add	x16, x16, #0x908
   3cf8c:	d61f0220 	br	x17

000000000003cf90 <apr_random_after_fork@plt>:
   3cf90:	d0000430 	adrp	x16, c2000 <apr_os_thread_put>
   3cf94:	f9448a11 	ldr	x17, [x16, #2320]
   3cf98:	91244210 	add	x16, x16, #0x910
   3cf9c:	d61f0220 	br	x17

000000000003cfa0 <apr_pescape_urlencoded@plt>:
   3cfa0:	d0000430 	adrp	x16, c2000 <apr_os_thread_put>
   3cfa4:	f9448e11 	ldr	x17, [x16, #2328]
   3cfa8:	91246210 	add	x16, x16, #0x918
   3cfac:	d61f0220 	br	x17

000000000003cfb0 <apr_getservbyname@plt>:
   3cfb0:	d0000430 	adrp	x16, c2000 <apr_os_thread_put>
   3cfb4:	f9449211 	ldr	x17, [x16, #2336]
   3cfb8:	91248210 	add	x16, x16, #0x920
   3cfbc:	d61f0220 	br	x17

000000000003cfc0 <apr_file_gets@plt>:
   3cfc0:	d0000430 	adrp	x16, c2000 <apr_os_thread_put>
   3cfc4:	f9449611 	ldr	x17, [x16, #2344]
   3cfc8:	9124a210 	add	x16, x16, #0x928
   3cfcc:	d61f0220 	br	x17

000000000003cfd0 <apr_strfsize@plt>:
   3cfd0:	d0000430 	adrp	x16, c2000 <apr_os_thread_put>
   3cfd4:	f9449a11 	ldr	x17, [x16, #2352]
   3cfd8:	9124c210 	add	x16, x16, #0x930
   3cfdc:	d61f0220 	br	x17

000000000003cfe0 <apr_bucket_simple_split@plt>:
   3cfe0:	d0000430 	adrp	x16, c2000 <apr_os_thread_put>
   3cfe4:	f9449e11 	ldr	x17, [x16, #2360]
   3cfe8:	9124e210 	add	x16, x16, #0x938
   3cfec:	d61f0220 	br	x17

000000000003cff0 <apr_escape_hex@plt>:
   3cff0:	d0000430 	adrp	x16, c2000 <apr_os_thread_put>
   3cff4:	f944a211 	ldr	x17, [x16, #2368]
   3cff8:	91250210 	add	x16, x16, #0x940
   3cffc:	d61f0220 	br	x17

000000000003d000 <apr_strmatch_precompile@plt>:
   3d000:	b0000430 	adrp	x16, c2000 <apr_os_thread_put>
   3d004:	f944a611 	ldr	x17, [x16, #2376]
   3d008:	91252210 	add	x16, x16, #0x948
   3d00c:	d61f0220 	br	x17

000000000003d010 <apr_signal@plt>:
   3d010:	b0000430 	adrp	x16, c2000 <apr_os_thread_put>
   3d014:	f944aa11 	ldr	x17, [x16, #2384]
   3d018:	91254210 	add	x16, x16, #0x950
   3d01c:	d61f0220 	br	x17

000000000003d020 <apr_bcrypt_encode@plt>:
   3d020:	b0000430 	adrp	x16, c2000 <apr_os_thread_put>
   3d024:	f944ae11 	ldr	x17, [x16, #2392]
   3d028:	91256210 	add	x16, x16, #0x958
   3d02c:	d61f0220 	br	x17

000000000003d030 <apr_signal_block@plt>:
   3d030:	b0000430 	adrp	x16, c2000 <apr_os_thread_put>
   3d034:	f944b211 	ldr	x17, [x16, #2400]
   3d038:	91258210 	add	x16, x16, #0x960
   3d03c:	d61f0220 	br	x17

000000000003d040 <apr_pool_cleanup_run@plt>:
   3d040:	b0000430 	adrp	x16, c2000 <apr_os_thread_put>
   3d044:	f944b611 	ldr	x17, [x16, #2408]
   3d048:	9125a210 	add	x16, x16, #0x968
   3d04c:	d61f0220 	br	x17

000000000003d050 <apr_pollcb_create@plt>:
   3d050:	b0000430 	adrp	x16, c2000 <apr_os_thread_put>
   3d054:	f944ba11 	ldr	x17, [x16, #2416]
   3d058:	9125c210 	add	x16, x16, #0x970
   3d05c:	d61f0220 	br	x17

000000000003d060 <apr_brigade_length@plt>:
   3d060:	b0000430 	adrp	x16, c2000 <apr_os_thread_put>
   3d064:	f944be11 	ldr	x17, [x16, #2424]
   3d068:	9125e210 	add	x16, x16, #0x978
   3d06c:	d61f0220 	br	x17

000000000003d070 <apr_redis_set@plt>:
   3d070:	b0000430 	adrp	x16, c2000 <apr_os_thread_put>
   3d074:	f944c211 	ldr	x17, [x16, #2432]
   3d078:	91260210 	add	x16, x16, #0x980
   3d07c:	d61f0220 	br	x17

000000000003d080 <apr_socket_atreadeof@plt>:
   3d080:	b0000430 	adrp	x16, c2000 <apr_os_thread_put>
   3d084:	f944c611 	ldr	x17, [x16, #2440]
   3d088:	91262210 	add	x16, x16, #0x988
   3d08c:	d61f0220 	br	x17

000000000003d090 <apr_socket_sendv@plt>:
   3d090:	b0000430 	adrp	x16, c2000 <apr_os_thread_put>
   3d094:	f944ca11 	ldr	x17, [x16, #2448]
   3d098:	91264210 	add	x16, x16, #0x990
   3d09c:	d61f0220 	br	x17

000000000003d0a0 <apr_thread_rwlock_rdlock@plt>:
   3d0a0:	b0000430 	adrp	x16, c2000 <apr_os_thread_put>
   3d0a4:	f944ce11 	ldr	x17, [x16, #2456]
   3d0a8:	91266210 	add	x16, x16, #0x998
   3d0ac:	d61f0220 	br	x17

000000000003d0b0 <apr_thread_pool_idle_count@plt>:
   3d0b0:	b0000430 	adrp	x16, c2000 <apr_os_thread_put>
   3d0b4:	f944d211 	ldr	x17, [x16, #2464]
   3d0b8:	91268210 	add	x16, x16, #0x9a0
   3d0bc:	d61f0220 	br	x17

000000000003d0c0 <apr_os_sock_get@plt>:
   3d0c0:	b0000430 	adrp	x16, c2000 <apr_os_thread_put>
   3d0c4:	f944d611 	ldr	x17, [x16, #2472]
   3d0c8:	9126a210 	add	x16, x16, #0x9a8
   3d0cc:	d61f0220 	br	x17

000000000003d0d0 <apr_dbm_get_usednames@plt>:
   3d0d0:	b0000430 	adrp	x16, c2000 <apr_os_thread_put>
   3d0d4:	f944da11 	ldr	x17, [x16, #2480]
   3d0d8:	9126c210 	add	x16, x16, #0x9b0
   3d0dc:	d61f0220 	br	x17

000000000003d0e0 <strncpy@plt>:
   3d0e0:	b0000430 	adrp	x16, c2000 <apr_os_thread_put>
   3d0e4:	f944de11 	ldr	x17, [x16, #2488]
   3d0e8:	9126e210 	add	x16, x16, #0x9b8
   3d0ec:	d61f0220 	br	x17

000000000003d0f0 <apr_atoi64@plt>:
   3d0f0:	b0000430 	adrp	x16, c2000 <apr_os_thread_put>
   3d0f4:	f944e211 	ldr	x17, [x16, #2496]
   3d0f8:	91270210 	add	x16, x16, #0x9c0
   3d0fc:	d61f0220 	br	x17

000000000003d100 <apr_strnatcasecmp@plt>:
   3d100:	b0000430 	adrp	x16, c2000 <apr_os_thread_put>
   3d104:	f944e611 	ldr	x17, [x16, #2504]
   3d108:	91272210 	add	x16, x16, #0x9c8
   3d10c:	d61f0220 	br	x17

000000000003d110 <apr_is_empty_array@plt>:
   3d110:	b0000430 	adrp	x16, c2000 <apr_os_thread_put>
   3d114:	f944ea11 	ldr	x17, [x16, #2512]
   3d118:	91274210 	add	x16, x16, #0x9d0
   3d11c:	d61f0220 	br	x17

000000000003d120 <sigaddset@plt>:
   3d120:	b0000430 	adrp	x16, c2000 <apr_os_thread_put>
   3d124:	f944ee11 	ldr	x17, [x16, #2520]
   3d128:	91276210 	add	x16, x16, #0x9d8
   3d12c:	d61f0220 	br	x17

000000000003d130 <apr_thread_cond_timedwait@plt>:
   3d130:	b0000430 	adrp	x16, c2000 <apr_os_thread_put>
   3d134:	f944f211 	ldr	x17, [x16, #2528]
   3d138:	91278210 	add	x16, x16, #0x9e0
   3d13c:	d61f0220 	br	x17

000000000003d140 <apr_decode_base16@plt>:
   3d140:	b0000430 	adrp	x16, c2000 <apr_os_thread_put>
   3d144:	f944f611 	ldr	x17, [x16, #2536]
   3d148:	9127a210 	add	x16, x16, #0x9e8
   3d14c:	d61f0220 	br	x17

000000000003d150 <apr_ipsubnet_test@plt>:
   3d150:	b0000430 	adrp	x16, c2000 <apr_os_thread_put>
   3d154:	f944fa11 	ldr	x17, [x16, #2544]
   3d158:	9127c210 	add	x16, x16, #0x9f0
   3d15c:	d61f0220 	br	x17

000000000003d160 <apr_signal_thread@plt>:
   3d160:	b0000430 	adrp	x16, c2000 <apr_os_thread_put>
   3d164:	f944fe11 	ldr	x17, [x16, #2552]
   3d168:	9127e210 	add	x16, x16, #0x9f8
   3d16c:	d61f0220 	br	x17

000000000003d170 <apr_gid_get@plt>:
   3d170:	b0000430 	adrp	x16, c2000 <apr_os_thread_put>
   3d174:	f9450211 	ldr	x17, [x16, #2560]
   3d178:	91280210 	add	x16, x16, #0xa00
   3d17c:	d61f0220 	br	x17

000000000003d180 <apr_dbd_transaction_mode_get@plt>:
   3d180:	b0000430 	adrp	x16, c2000 <apr_os_thread_put>
   3d184:	f9450611 	ldr	x17, [x16, #2568]
   3d188:	91282210 	add	x16, x16, #0xa08
   3d18c:	d61f0220 	br	x17

000000000003d190 <apr_file_perms_set@plt>:
   3d190:	b0000430 	adrp	x16, c2000 <apr_os_thread_put>
   3d194:	f9450a11 	ldr	x17, [x16, #2576]
   3d198:	91284210 	add	x16, x16, #0xa10
   3d19c:	d61f0220 	br	x17

000000000003d1a0 <apr_mcast_leave@plt>:
   3d1a0:	b0000430 	adrp	x16, c2000 <apr_os_thread_put>
   3d1a4:	f9450e11 	ldr	x17, [x16, #2584]
   3d1a8:	91286210 	add	x16, x16, #0xa18
   3d1ac:	d61f0220 	br	x17

000000000003d1b0 <apr_xlate_sb_get@plt>:
   3d1b0:	b0000430 	adrp	x16, c2000 <apr_os_thread_put>
   3d1b4:	f9451211 	ldr	x17, [x16, #2592]
   3d1b8:	91288210 	add	x16, x16, #0xa20
   3d1bc:	d61f0220 	br	x17

000000000003d1c0 <apr_thread_pool_push@plt>:
   3d1c0:	b0000430 	adrp	x16, c2000 <apr_os_thread_put>
   3d1c4:	f9451611 	ldr	x17, [x16, #2600]
   3d1c8:	9128a210 	add	x16, x16, #0xa28
   3d1cc:	d61f0220 	br	x17

000000000003d1d0 <apr_bucket_file_enable_mmap@plt>:
   3d1d0:	b0000430 	adrp	x16, c2000 <apr_os_thread_put>
   3d1d4:	f9451a11 	ldr	x17, [x16, #2608]
   3d1d8:	9128c210 	add	x16, x16, #0xa30
   3d1dc:	d61f0220 	br	x17

000000000003d1e0 <apr_proc_mutex_trylock@plt>:
   3d1e0:	b0000430 	adrp	x16, c2000 <apr_os_thread_put>
   3d1e4:	f9451e11 	ldr	x17, [x16, #2616]
   3d1e8:	9128e210 	add	x16, x16, #0xa38
   3d1ec:	d61f0220 	br	x17

000000000003d1f0 <apr_redis_multgetp@plt>:
   3d1f0:	b0000430 	adrp	x16, c2000 <apr_os_thread_put>
   3d1f4:	f9452211 	ldr	x17, [x16, #2624]
   3d1f8:	91290210 	add	x16, x16, #0xa40
   3d1fc:	d61f0220 	br	x17

000000000003d200 <apr_initialize@plt>:
   3d200:	b0000430 	adrp	x16, c2000 <apr_os_thread_put>
   3d204:	f9452611 	ldr	x17, [x16, #2632]
   3d208:	91292210 	add	x16, x16, #0xa48
   3d20c:	d61f0220 	br	x17

000000000003d210 <apr_generate_random_bytes@plt>:
   3d210:	b0000430 	adrp	x16, c2000 <apr_os_thread_put>
   3d214:	f9452a11 	ldr	x17, [x16, #2640]
   3d218:	91294210 	add	x16, x16, #0xa50
   3d21c:	d61f0220 	br	x17

000000000003d220 <apr_is_empty_table@plt>:
   3d220:	b0000430 	adrp	x16, c2000 <apr_os_thread_put>
   3d224:	f9452e11 	ldr	x17, [x16, #2648]
   3d228:	91296210 	add	x16, x16, #0xa58
   3d22c:	d61f0220 	br	x17

000000000003d230 <apr_file_sync@plt>:
   3d230:	b0000430 	adrp	x16, c2000 <apr_os_thread_put>
   3d234:	f9453211 	ldr	x17, [x16, #2656]
   3d238:	91298210 	add	x16, x16, #0xa60
   3d23c:	d61f0220 	br	x17

000000000003d240 <apr_os_sock_put@plt>:
   3d240:	b0000430 	adrp	x16, c2000 <apr_os_thread_put>
   3d244:	f9453611 	ldr	x17, [x16, #2664]
   3d248:	9129a210 	add	x16, x16, #0xa68
   3d24c:	d61f0220 	br	x17

000000000003d250 <apr_threadkey_private_get@plt>:
   3d250:	b0000430 	adrp	x16, c2000 <apr_os_thread_put>
   3d254:	f9453a11 	ldr	x17, [x16, #2672]
   3d258:	9129c210 	add	x16, x16, #0xa70
   3d25c:	d61f0220 	br	x17

000000000003d260 <__errno_location@plt>:
   3d260:	b0000430 	adrp	x16, c2000 <apr_os_thread_put>
   3d264:	f9453e11 	ldr	x17, [x16, #2680]
   3d268:	9129e210 	add	x16, x16, #0xa78
   3d26c:	d61f0220 	br	x17

000000000003d270 <apr_sdbm_fetch@plt>:
   3d270:	b0000430 	adrp	x16, c2000 <apr_os_thread_put>
   3d274:	f9454211 	ldr	x17, [x16, #2688]
   3d278:	912a0210 	add	x16, x16, #0xa80
   3d27c:	d61f0220 	br	x17

000000000003d280 <apr_skiplist_set_preheight@plt>:
   3d280:	b0000430 	adrp	x16, c2000 <apr_os_thread_put>
   3d284:	f9454611 	ldr	x17, [x16, #2696]
   3d288:	912a2210 	add	x16, x16, #0xa88
   3d28c:	d61f0220 	br	x17

000000000003d290 <apr_xml_to_text@plt>:
   3d290:	b0000430 	adrp	x16, c2000 <apr_os_thread_put>
   3d294:	f9454a11 	ldr	x17, [x16, #2704]
   3d298:	912a4210 	add	x16, x16, #0xa90
   3d29c:	d61f0220 	br	x17

000000000003d2a0 <apr_file_write@plt>:
   3d2a0:	b0000430 	adrp	x16, c2000 <apr_os_thread_put>
   3d2a4:	f9454e11 	ldr	x17, [x16, #2712]
   3d2a8:	912a6210 	add	x16, x16, #0xa98
   3d2ac:	d61f0220 	br	x17

000000000003d2b0 <apr_file_setaside@plt>:
   3d2b0:	b0000430 	adrp	x16, c2000 <apr_os_thread_put>
   3d2b4:	f9455211 	ldr	x17, [x16, #2720]
   3d2b8:	912a8210 	add	x16, x16, #0xaa0
   3d2bc:	d61f0220 	br	x17

000000000003d2c0 <apr_redis_hash_default@plt>:
   3d2c0:	b0000430 	adrp	x16, c2000 <apr_os_thread_put>
   3d2c4:	f9455611 	ldr	x17, [x16, #2728]
   3d2c8:	912aa210 	add	x16, x16, #0xaa8
   3d2cc:	d61f0220 	br	x17

000000000003d2d0 <getenv@plt>:
   3d2d0:	b0000430 	adrp	x16, c2000 <apr_os_thread_put>
   3d2d4:	f9455a11 	ldr	x17, [x16, #2736]
   3d2d8:	912ac210 	add	x16, x16, #0xab0
   3d2dc:	d61f0220 	br	x17

000000000003d2e0 <putchar@plt>:
   3d2e0:	b0000430 	adrp	x16, c2000 <apr_os_thread_put>
   3d2e4:	f9455e11 	ldr	x17, [x16, #2744]
   3d2e8:	912ae210 	add	x16, x16, #0xab8
   3d2ec:	d61f0220 	br	x17

000000000003d2f0 <apr_thread_mutex_create@plt>:
   3d2f0:	b0000430 	adrp	x16, c2000 <apr_os_thread_put>
   3d2f4:	f9456211 	ldr	x17, [x16, #2752]
   3d2f8:	912b0210 	add	x16, x16, #0xac0
   3d2fc:	d61f0220 	br	x17

000000000003d300 <apr_thread_rwlock_tryrdlock@plt>:
   3d300:	b0000430 	adrp	x16, c2000 <apr_os_thread_put>
   3d304:	f9456611 	ldr	x17, [x16, #2760]
   3d308:	912b2210 	add	x16, x16, #0xac8
   3d30c:	d61f0220 	br	x17

000000000003d310 <apr_decode_base32_binary@plt>:
   3d310:	b0000430 	adrp	x16, c2000 <apr_os_thread_put>
   3d314:	f9456a11 	ldr	x17, [x16, #2768]
   3d318:	912b4210 	add	x16, x16, #0xad0
   3d31c:	d61f0220 	br	x17

000000000003d320 <apr_fnmatch_test@plt>:
   3d320:	b0000430 	adrp	x16, c2000 <apr_os_thread_put>
   3d324:	f9456e11 	ldr	x17, [x16, #2776]
   3d328:	912b6210 	add	x16, x16, #0xad8
   3d32c:	d61f0220 	br	x17

000000000003d330 <apr_shm_baseaddr_get@plt>:
   3d330:	b0000430 	adrp	x16, c2000 <apr_os_thread_put>
   3d334:	f9457211 	ldr	x17, [x16, #2784]
   3d338:	912b8210 	add	x16, x16, #0xae0
   3d33c:	d61f0220 	br	x17

000000000003d340 <apr_strerror@plt>:
   3d340:	b0000430 	adrp	x16, c2000 <apr_os_thread_put>
   3d344:	f9457611 	ldr	x17, [x16, #2792]
   3d348:	912ba210 	add	x16, x16, #0xae8
   3d34c:	d61f0220 	br	x17

000000000003d350 <apr_sdbm_open@plt>:
   3d350:	b0000430 	adrp	x16, c2000 <apr_os_thread_put>
   3d354:	f9457a11 	ldr	x17, [x16, #2800]
   3d358:	912bc210 	add	x16, x16, #0xaf0
   3d35c:	d61f0220 	br	x17

000000000003d360 <apr_bucket_shared_destroy@plt>:
   3d360:	b0000430 	adrp	x16, c2000 <apr_os_thread_put>
   3d364:	f9457e11 	ldr	x17, [x16, #2808]
   3d368:	912be210 	add	x16, x16, #0xaf8
   3d36c:	d61f0220 	br	x17

000000000003d370 <apr_file_inherit_set@plt>:
   3d370:	b0000430 	adrp	x16, c2000 <apr_os_thread_put>
   3d374:	f9458211 	ldr	x17, [x16, #2816]
   3d378:	912c0210 	add	x16, x16, #0xb00
   3d37c:	d61f0220 	br	x17

000000000003d380 <apr_socket_bind@plt>:
   3d380:	b0000430 	adrp	x16, c2000 <apr_os_thread_put>
   3d384:	f9458611 	ldr	x17, [x16, #2824]
   3d388:	912c2210 	add	x16, x16, #0xb08
   3d38c:	d61f0220 	br	x17

000000000003d390 <apr_file_name_get@plt>:
   3d390:	b0000430 	adrp	x16, c2000 <apr_os_thread_put>
   3d394:	f9458a11 	ldr	x17, [x16, #2832]
   3d398:	912c4210 	add	x16, x16, #0xb10
   3d39c:	d61f0220 	br	x17

000000000003d3a0 <chown@plt>:
   3d3a0:	b0000430 	adrp	x16, c2000 <apr_os_thread_put>
   3d3a4:	f9458e11 	ldr	x17, [x16, #2840]
   3d3a8:	912c6210 	add	x16, x16, #0xb18
   3d3ac:	d61f0220 	br	x17

000000000003d3b0 <apr_strtok@plt>:
   3d3b0:	b0000430 	adrp	x16, c2000 <apr_os_thread_put>
   3d3b4:	f9459211 	ldr	x17, [x16, #2848]
   3d3b8:	912c8210 	add	x16, x16, #0xb20
   3d3bc:	d61f0220 	br	x17

000000000003d3c0 <apr_dbd_close@plt>:
   3d3c0:	b0000430 	adrp	x16, c2000 <apr_os_thread_put>
   3d3c4:	f9459611 	ldr	x17, [x16, #2856]
   3d3c8:	912ca210 	add	x16, x16, #0xb28
   3d3cc:	d61f0220 	br	x17

000000000003d3d0 <apr_file_printf@plt>:
   3d3d0:	b0000430 	adrp	x16, c2000 <apr_os_thread_put>
   3d3d4:	f9459a11 	ldr	x17, [x16, #2864]
   3d3d8:	912cc210 	add	x16, x16, #0xb30
   3d3dc:	d61f0220 	br	x17

000000000003d3e0 <apr_getopt@plt>:
   3d3e0:	b0000430 	adrp	x16, c2000 <apr_os_thread_put>
   3d3e4:	f9459e11 	ldr	x17, [x16, #2872]
   3d3e8:	912ce210 	add	x16, x16, #0xb38
   3d3ec:	d61f0220 	br	x17

000000000003d3f0 <apr_filepath_merge@plt>:
   3d3f0:	b0000430 	adrp	x16, c2000 <apr_os_thread_put>
   3d3f4:	f945a211 	ldr	x17, [x16, #2880]
   3d3f8:	912d0210 	add	x16, x16, #0xb40
   3d3fc:	d61f0220 	br	x17

000000000003d400 <apr_getopt_long@plt>:
   3d400:	b0000430 	adrp	x16, c2000 <apr_os_thread_put>
   3d404:	f945a611 	ldr	x17, [x16, #2888]
   3d408:	912d2210 	add	x16, x16, #0xb48
   3d40c:	d61f0220 	br	x17

000000000003d410 <apr_dbd_pvbquery@plt>:
   3d410:	b0000430 	adrp	x16, c2000 <apr_os_thread_put>
   3d414:	f945aa11 	ldr	x17, [x16, #2896]
   3d418:	912d4210 	add	x16, x16, #0xb50
   3d41c:	d61f0220 	br	x17

000000000003d420 <apr_uuid_format@plt>:
   3d420:	b0000430 	adrp	x16, c2000 <apr_os_thread_put>
   3d424:	f945ae11 	ldr	x17, [x16, #2904]
   3d428:	912d6210 	add	x16, x16, #0xb58
   3d42c:	d61f0220 	br	x17

000000000003d430 <apr_os_thread_get@plt>:
   3d430:	b0000430 	adrp	x16, c2000 <apr_os_thread_put>
   3d434:	f945b211 	ldr	x17, [x16, #2912]
   3d438:	912d8210 	add	x16, x16, #0xb60
   3d43c:	d61f0220 	br	x17

000000000003d440 <apr_strtoff@plt>:
   3d440:	b0000430 	adrp	x16, c2000 <apr_os_thread_put>
   3d444:	f945b611 	ldr	x17, [x16, #2920]
   3d448:	912da210 	add	x16, x16, #0xb68
   3d44c:	d61f0220 	br	x17

000000000003d450 <apr_sha1_update@plt>:
   3d450:	b0000430 	adrp	x16, c2000 <apr_os_thread_put>
   3d454:	f945ba11 	ldr	x17, [x16, #2928]
   3d458:	912dc210 	add	x16, x16, #0xb70
   3d45c:	d61f0220 	br	x17

000000000003d460 <apr_allocator_alloc@plt>:
   3d460:	b0000430 	adrp	x16, c2000 <apr_os_thread_put>
   3d464:	f945be11 	ldr	x17, [x16, #2936]
   3d468:	912de210 	add	x16, x16, #0xb78
   3d46c:	d61f0220 	br	x17

000000000003d470 <syscall@plt>:
   3d470:	b0000430 	adrp	x16, c2000 <apr_os_thread_put>
   3d474:	f945c211 	ldr	x17, [x16, #2944]
   3d478:	912e0210 	add	x16, x16, #0xb80
   3d47c:	d61f0220 	br	x17

000000000003d480 <apr_skiplist_insert_compare@plt>:
   3d480:	b0000430 	adrp	x16, c2000 <apr_os_thread_put>
   3d484:	f945c611 	ldr	x17, [x16, #2952]
   3d488:	912e2210 	add	x16, x16, #0xb88
   3d48c:	d61f0220 	br	x17

000000000003d490 <apr_file_trunc@plt>:
   3d490:	b0000430 	adrp	x16, c2000 <apr_os_thread_put>
   3d494:	f945ca11 	ldr	x17, [x16, #2960]
   3d498:	912e4210 	add	x16, x16, #0xb90
   3d49c:	d61f0220 	br	x17

000000000003d4a0 <apr_cstr_tokenize@plt>:
   3d4a0:	b0000430 	adrp	x16, c2000 <apr_os_thread_put>
   3d4a4:	f945ce11 	ldr	x17, [x16, #2968]
   3d4a8:	912e6210 	add	x16, x16, #0xb98
   3d4ac:	d61f0220 	br	x17

000000000003d4b0 <apr_skiplist_find_compare@plt>:
   3d4b0:	b0000430 	adrp	x16, c2000 <apr_os_thread_put>
   3d4b4:	f945d211 	ldr	x17, [x16, #2976]
   3d4b8:	912e8210 	add	x16, x16, #0xba0
   3d4bc:	d61f0220 	br	x17

000000000003d4c0 <apr_escape_echo@plt>:
   3d4c0:	b0000430 	adrp	x16, c2000 <apr_os_thread_put>
   3d4c4:	f945d611 	ldr	x17, [x16, #2984]
   3d4c8:	912ea210 	add	x16, x16, #0xba8
   3d4cc:	d61f0220 	br	x17

000000000003d4d0 <apr_xlate_conv_byte@plt>:
   3d4d0:	b0000430 	adrp	x16, c2000 <apr_os_thread_put>
   3d4d4:	f945da11 	ldr	x17, [x16, #2992]
   3d4d8:	912ec210 	add	x16, x16, #0xbb0
   3d4dc:	d61f0220 	br	x17

000000000003d4e0 <apr_pdecode_base64_binary@plt>:
   3d4e0:	b0000430 	adrp	x16, c2000 <apr_os_thread_put>
   3d4e4:	f945de11 	ldr	x17, [x16, #3000]
   3d4e8:	912ee210 	add	x16, x16, #0xbb8
   3d4ec:	d61f0220 	br	x17

000000000003d4f0 <apr_file_copy@plt>:
   3d4f0:	b0000430 	adrp	x16, c2000 <apr_os_thread_put>
   3d4f4:	f945e211 	ldr	x17, [x16, #3008]
   3d4f8:	912f0210 	add	x16, x16, #0xbc0
   3d4fc:	d61f0220 	br	x17

000000000003d500 <apr_dbm_nextkey@plt>:
   3d500:	b0000430 	adrp	x16, c2000 <apr_os_thread_put>
   3d504:	f945e611 	ldr	x17, [x16, #3016]
   3d508:	912f2210 	add	x16, x16, #0xbc8
   3d50c:	d61f0220 	br	x17

000000000003d510 <apr_reslist_acquire@plt>:
   3d510:	b0000430 	adrp	x16, c2000 <apr_os_thread_put>
   3d514:	f945ea11 	ldr	x17, [x16, #3024]
   3d518:	912f4210 	add	x16, x16, #0xbd0
   3d51c:	d61f0220 	br	x17

000000000003d520 <apr_threadkey_data_get@plt>:
   3d520:	b0000430 	adrp	x16, c2000 <apr_os_thread_put>
   3d524:	f945ee11 	ldr	x17, [x16, #3032]
   3d528:	912f6210 	add	x16, x16, #0xbd8
   3d52c:	d61f0220 	br	x17

000000000003d530 <apr_global_mutex_mech@plt>:
   3d530:	b0000430 	adrp	x16, c2000 <apr_os_thread_put>
   3d534:	f945f211 	ldr	x17, [x16, #3040]
   3d538:	912f8210 	add	x16, x16, #0xbe0
   3d53c:	d61f0220 	br	x17

000000000003d540 <apr_skiplist_remove@plt>:
   3d540:	b0000430 	adrp	x16, c2000 <apr_os_thread_put>
   3d544:	f945f611 	ldr	x17, [x16, #3048]
   3d548:	912fa210 	add	x16, x16, #0xbe8
   3d54c:	d61f0220 	br	x17

000000000003d550 <apr_bucket_heap_create@plt>:
   3d550:	b0000430 	adrp	x16, c2000 <apr_os_thread_put>
   3d554:	f945fa11 	ldr	x17, [x16, #3056]
   3d558:	912fc210 	add	x16, x16, #0xbf0
   3d55c:	d61f0220 	br	x17

000000000003d560 <apr_dbd_query@plt>:
   3d560:	b0000430 	adrp	x16, c2000 <apr_os_thread_put>
   3d564:	f945fe11 	ldr	x17, [x16, #3064]
   3d568:	912fe210 	add	x16, x16, #0xbf8
   3d56c:	d61f0220 	br	x17

000000000003d570 <apr_file_pipe_timeout_get@plt>:
   3d570:	b0000430 	adrp	x16, c2000 <apr_os_thread_put>
   3d574:	f9460211 	ldr	x17, [x16, #3072]
   3d578:	91300210 	add	x16, x16, #0xc00
   3d57c:	d61f0220 	br	x17

000000000003d580 <apr_pescape_path_segment@plt>:
   3d580:	b0000430 	adrp	x16, c2000 <apr_os_thread_put>
   3d584:	f9460611 	ldr	x17, [x16, #3080]
   3d588:	91302210 	add	x16, x16, #0xc08
   3d58c:	d61f0220 	br	x17

000000000003d590 <apr_file_ungetc@plt>:
   3d590:	b0000430 	adrp	x16, c2000 <apr_os_thread_put>
   3d594:	f9460a11 	ldr	x17, [x16, #3088]
   3d598:	91304210 	add	x16, x16, #0xc10
   3d59c:	d61f0220 	br	x17

000000000003d5a0 <apr_atomic_set64@plt>:
   3d5a0:	b0000430 	adrp	x16, c2000 <apr_os_thread_put>
   3d5a4:	f9460e11 	ldr	x17, [x16, #3096]
   3d5a8:	91306210 	add	x16, x16, #0xc18
   3d5ac:	d61f0220 	br	x17

000000000003d5b0 <apr_memcache_hash_crc32@plt>:
   3d5b0:	b0000430 	adrp	x16, c2000 <apr_os_thread_put>
   3d5b4:	f9461211 	ldr	x17, [x16, #3104]
   3d5b8:	91308210 	add	x16, x16, #0xc20
   3d5bc:	d61f0220 	br	x17

000000000003d5c0 <apr_thread_rwlock_destroy@plt>:
   3d5c0:	b0000430 	adrp	x16, c2000 <apr_os_thread_put>
   3d5c4:	f9461611 	ldr	x17, [x16, #3112]
   3d5c8:	9130a210 	add	x16, x16, #0xc28
   3d5cc:	d61f0220 	br	x17

000000000003d5d0 <apr_memcache_create@plt>:
   3d5d0:	b0000430 	adrp	x16, c2000 <apr_os_thread_put>
   3d5d4:	f9461a11 	ldr	x17, [x16, #3120]
   3d5d8:	9130c210 	add	x16, x16, #0xc30
   3d5dc:	d61f0220 	br	x17

000000000003d5e0 <apr_queue_trypush@plt>:
   3d5e0:	b0000430 	adrp	x16, c2000 <apr_os_thread_put>
   3d5e4:	f9461e11 	ldr	x17, [x16, #3128]
   3d5e8:	9130e210 	add	x16, x16, #0xc38
   3d5ec:	d61f0220 	br	x17

000000000003d5f0 <apr_socket_addr_get@plt>:
   3d5f0:	b0000430 	adrp	x16, c2000 <apr_os_thread_put>
   3d5f4:	f9462211 	ldr	x17, [x16, #3136]
   3d5f8:	91310210 	add	x16, x16, #0xc40
   3d5fc:	d61f0220 	br	x17

000000000003d600 <apr_global_mutex_lockfile@plt>:
   3d600:	b0000430 	adrp	x16, c2000 <apr_os_thread_put>
   3d604:	f9462611 	ldr	x17, [x16, #3144]
   3d608:	91312210 	add	x16, x16, #0xc48
   3d60c:	d61f0220 	br	x17

000000000003d610 <apr_atomic_xchg32@plt>:
   3d610:	b0000430 	adrp	x16, c2000 <apr_os_thread_put>
   3d614:	f9462a11 	ldr	x17, [x16, #3152]
   3d618:	91314210 	add	x16, x16, #0xc50
   3d61c:	d61f0220 	br	x17

000000000003d620 <apr_skiplist_merge@plt>:
   3d620:	b0000430 	adrp	x16, c2000 <apr_os_thread_put>
   3d624:	f9462e11 	ldr	x17, [x16, #3160]
   3d628:	91316210 	add	x16, x16, #0xc58
   3d62c:	d61f0220 	br	x17

000000000003d630 <apr_queue_pop@plt>:
   3d630:	b0000430 	adrp	x16, c2000 <apr_os_thread_put>
   3d634:	f9463211 	ldr	x17, [x16, #3168]
   3d638:	91318210 	add	x16, x16, #0xc60
   3d63c:	d61f0220 	br	x17

000000000003d640 <apr_file_append@plt>:
   3d640:	b0000430 	adrp	x16, c2000 <apr_os_thread_put>
   3d644:	f9463611 	ldr	x17, [x16, #3176]
   3d648:	9131a210 	add	x16, x16, #0xc68
   3d64c:	d61f0220 	br	x17

000000000003d650 <apr_threadkey_private_delete@plt>:
   3d650:	b0000430 	adrp	x16, c2000 <apr_os_thread_put>
   3d654:	f9463a11 	ldr	x17, [x16, #3184]
   3d658:	9131c210 	add	x16, x16, #0xc70
   3d65c:	d61f0220 	br	x17

000000000003d660 <apr_hash_get@plt>:
   3d660:	b0000430 	adrp	x16, c2000 <apr_os_thread_put>
   3d664:	f9463e11 	ldr	x17, [x16, #3192]
   3d668:	9131e210 	add	x16, x16, #0xc78
   3d66c:	d61f0220 	br	x17

000000000003d670 <apr_pool_pre_cleanup_register@plt>:
   3d670:	b0000430 	adrp	x16, c2000 <apr_os_thread_put>
   3d674:	f9464211 	ldr	x17, [x16, #3200]
   3d678:	91320210 	add	x16, x16, #0xc80
   3d67c:	d61f0220 	br	x17

000000000003d680 <apr_md5@plt>:
   3d680:	b0000430 	adrp	x16, c2000 <apr_os_thread_put>
   3d684:	f9464611 	ldr	x17, [x16, #3208]
   3d688:	91322210 	add	x16, x16, #0xc88
   3d68c:	d61f0220 	br	x17

000000000003d690 <apr_bucket_file_make@plt>:
   3d690:	b0000430 	adrp	x16, c2000 <apr_os_thread_put>
   3d694:	f9464a11 	ldr	x17, [x16, #3216]
   3d698:	91324210 	add	x16, x16, #0xc90
   3d69c:	d61f0220 	br	x17

000000000003d6a0 <apr_cstr_match_list@plt>:
   3d6a0:	b0000430 	adrp	x16, c2000 <apr_os_thread_put>
   3d6a4:	f9464e11 	ldr	x17, [x16, #3224]
   3d6a8:	91326210 	add	x16, x16, #0xc98
   3d6ac:	d61f0220 	br	x17

000000000003d6b0 <apr_file_rename@plt>:
   3d6b0:	b0000430 	adrp	x16, c2000 <apr_os_thread_put>
   3d6b4:	f9465211 	ldr	x17, [x16, #3232]
   3d6b8:	91328210 	add	x16, x16, #0xca0
   3d6bc:	d61f0220 	br	x17

000000000003d6c0 <apr_global_mutex_pool_get@plt>:
   3d6c0:	b0000430 	adrp	x16, c2000 <apr_os_thread_put>
   3d6c4:	f9465611 	ldr	x17, [x16, #3240]
   3d6c8:	9132a210 	add	x16, x16, #0xca8
   3d6cc:	d61f0220 	br	x17

000000000003d6d0 <apr_thread_mutex_unlock@plt>:
   3d6d0:	b0000430 	adrp	x16, c2000 <apr_os_thread_put>
   3d6d4:	f9465a11 	ldr	x17, [x16, #3248]
   3d6d8:	9132c210 	add	x16, x16, #0xcb0
   3d6dc:	d61f0220 	br	x17

000000000003d6e0 <apr_random_barrier@plt>:
   3d6e0:	b0000430 	adrp	x16, c2000 <apr_os_thread_put>
   3d6e4:	f9465e11 	ldr	x17, [x16, #3256]
   3d6e8:	9132e210 	add	x16, x16, #0xcb8
   3d6ec:	d61f0220 	br	x17

000000000003d6f0 <apr_procattr_detach_set@plt>:
   3d6f0:	b0000430 	adrp	x16, c2000 <apr_os_thread_put>
   3d6f4:	f9466211 	ldr	x17, [x16, #3264]
   3d6f8:	91330210 	add	x16, x16, #0xcc0
   3d6fc:	d61f0220 	br	x17

000000000003d700 <apr_pollcb_create_ex@plt>:
   3d700:	b0000430 	adrp	x16, c2000 <apr_os_thread_put>
   3d704:	f9466611 	ldr	x17, [x16, #3272]
   3d708:	91332210 	add	x16, x16, #0xcc8
   3d70c:	d61f0220 	br	x17

000000000003d710 <apr_proc_wait@plt>:
   3d710:	b0000430 	adrp	x16, c2000 <apr_os_thread_put>
   3d714:	f9466a11 	ldr	x17, [x16, #3280]
   3d718:	91334210 	add	x16, x16, #0xcd0
   3d71c:	d61f0220 	br	x17

000000000003d720 <apr_gethostname@plt>:
   3d720:	b0000430 	adrp	x16, c2000 <apr_os_thread_put>
   3d724:	f9466e11 	ldr	x17, [x16, #3288]
   3d728:	91336210 	add	x16, x16, #0xcd8
   3d72c:	d61f0220 	br	x17

000000000003d730 <apr_os_pipe_put@plt>:
   3d730:	b0000430 	adrp	x16, c2000 <apr_os_thread_put>
   3d734:	f9467211 	ldr	x17, [x16, #3296]
   3d738:	91338210 	add	x16, x16, #0xce0
   3d73c:	d61f0220 	br	x17

000000000003d740 <apr_dso_load@plt>:
   3d740:	b0000430 	adrp	x16, c2000 <apr_os_thread_put>
   3d744:	f9467611 	ldr	x17, [x16, #3304]
   3d748:	9133a210 	add	x16, x16, #0xce8
   3d74c:	d61f0220 	br	x17

Disassembly of section .text:

000000000003d750 <main>:
   3d750:	d10443ff 	sub	sp, sp, #0x110
   3d754:	b0000423 	adrp	x3, c2000 <apr_os_thread_put>
   3d758:	d2800002 	mov	x2, #0x0                   	// #0
   3d75c:	a9017bfd 	stp	x29, x30, [sp, #16]
   3d760:	910043fd 	add	x29, sp, #0x10
   3d764:	f9474063 	ldr	x3, [x3, #3712]
   3d768:	a90253f3 	stp	x19, x20, [sp, #32]
   3d76c:	f9400064 	ldr	x4, [x3]
   3d770:	f90087e4 	str	x4, [sp, #264]
   3d774:	d2800004 	mov	x4, #0x0                   	// #0
   3d778:	f90053e1 	str	x1, [sp, #160]
   3d77c:	910283e1 	add	x1, sp, #0xa0
   3d780:	b900afe0 	str	w0, [sp, #172]
   3d784:	9102b3e0 	add	x0, sp, #0xac
   3d788:	97fff37a 	bl	3a570 <apr_app_initialize@plt>
   3d78c:	340003a0 	cbz	w0, 3d800 <main+0xb0>
   3d790:	d0000266 	adrp	x6, 8b000 <ap_unixd_mpm_set_signals+0x408>
   3d794:	2a0003f4 	mov	w20, w0
   3d798:	912f40c6 	add	x6, x6, #0xbd0
   3d79c:	a90463f7 	stp	x23, x24, [sp, #64]
   3d7a0:	9103a3f3 	add	x19, sp, #0xe8
   3d7a4:	a9035bf5 	stp	x21, x22, [sp, #48]
   3d7a8:	a9056bf9 	stp	x25, x26, [sp, #80]
   3d7ac:	a90673fb 	stp	x27, x28, [sp, #96]
   3d7b0:	f9003be6 	str	x6, [sp, #112]
   3d7b4:	97fff317 	bl	3a410 <apr_time_now@plt>
   3d7b8:	aa0003e1 	mov	x1, x0
   3d7bc:	aa1303e0 	mov	x0, x19
   3d7c0:	97fff2ec 	bl	3a370 <apr_ctime@plt>
   3d7c4:	b0000420 	adrp	x0, c2000 <apr_os_thread_put>
   3d7c8:	aa1303e3 	mov	x3, x19
   3d7cc:	f94053e1 	ldr	x1, [sp, #160]
   3d7d0:	2a1403e4 	mov	w4, w20
   3d7d4:	f946ac00 	ldr	x0, [x0, #3416]
   3d7d8:	d0000262 	adrp	x2, 8b000 <ap_unixd_mpm_set_signals+0x408>
   3d7dc:	f9400025 	ldr	x5, [x1]
   3d7e0:	9130a042 	add	x2, x2, #0xc28
   3d7e4:	f9400000 	ldr	x0, [x0]
   3d7e8:	52800021 	mov	w1, #0x1                   	// #1
   3d7ec:	f9403be6 	ldr	x6, [sp, #112]
   3d7f0:	97fff9b0 	bl	3beb0 <__fprintf_chk@plt>
   3d7f4:	97fff2a7 	bl	3a290 <apr_terminate@plt>
   3d7f8:	52800020 	mov	w0, #0x1                   	// #1
   3d7fc:	97fff26d 	bl	3a1b0 <exit@plt>
   3d800:	a90463f7 	stp	x23, x24, [sp, #64]
   3d804:	910363f7 	add	x23, sp, #0xd8
   3d808:	aa1703e0 	mov	x0, x23
   3d80c:	d2800003 	mov	x3, #0x0                   	// #0
   3d810:	d2800002 	mov	x2, #0x0                   	// #0
   3d814:	d2800001 	mov	x1, #0x0                   	// #0
   3d818:	97fff412 	bl	3a860 <apr_pool_create_ex@plt>
   3d81c:	2a0003f4 	mov	w20, w0
   3d820:	35003be0 	cbnz	w0, 3df9c <main+0x84c>
   3d824:	f9406fe1 	ldr	x1, [sp, #216]
   3d828:	b0000014 	adrp	x20, 3e000 <main+0x8b0>
   3d82c:	910e8294 	add	x20, x20, #0x3a0
   3d830:	a9035bf5 	stp	x21, x22, [sp, #48]
   3d834:	aa1403e0 	mov	x0, x20
   3d838:	97fff41a 	bl	3a8a0 <apr_pool_abort_set@plt>
   3d83c:	910383f6 	add	x22, sp, #0xe0
   3d840:	f9406fe0 	ldr	x0, [sp, #216]
   3d844:	f00002e1 	adrp	x1, 9c000 <shortcut.14271+0x2560>
   3d848:	91052021 	add	x1, x1, #0x148
   3d84c:	97fff321 	bl	3a4d0 <apr_pool_tag@plt>
   3d850:	f9406fe0 	ldr	x0, [sp, #216]
   3d854:	9400b401 	bl	6a858 <ap_open_stderr_log>
   3d858:	f9406fe0 	ldr	x0, [sp, #216]
   3d85c:	d2800501 	mov	x1, #0x28                  	// #40
   3d860:	97fff6d0 	bl	3b3a0 <apr_palloc@plt>
   3d864:	aa0003f3 	mov	x19, x0
   3d868:	f9406fe1 	ldr	x1, [sp, #216]
   3d86c:	a9007c01 	stp	x1, xzr, [x0]
   3d870:	94000386 	bl	3e688 <reset_process_pconf>
   3d874:	f94053e0 	ldr	x0, [sp, #160]
   3d878:	f9000e60 	str	x0, [x19, #24]
   3d87c:	b940afe1 	ldr	w1, [sp, #172]
   3d880:	b9002261 	str	w1, [x19, #32]
   3d884:	f9400000 	ldr	x0, [x0]
   3d888:	97fff4fe 	bl	3ac80 <apr_filepath_name_get@plt>
   3d88c:	f9000a60 	str	x0, [x19, #16]
   3d890:	f9400261 	ldr	x1, [x19]
   3d894:	aa1603e0 	mov	x0, x22
   3d898:	f90073ff 	str	xzr, [sp, #224]
   3d89c:	94001f3b 	bl	45588 <ap_thread_main_create>
   3d8a0:	a9056bf9 	stp	x25, x26, [sp, #80]
   3d8a4:	2a0003f5 	mov	w21, w0
   3d8a8:	a90673fb 	stp	x27, x28, [sp, #96]
   3d8ac:	35003020 	cbnz	w0, 3deb0 <main+0x760>
   3d8b0:	b000043c 	adrp	x28, c2000 <apr_os_thread_put>
   3d8b4:	b000043b 	adrp	x27, c2000 <apr_os_thread_put>
   3d8b8:	f9400a61 	ldr	x1, [x19, #16]
   3d8bc:	b0000439 	adrp	x25, c2000 <apr_os_thread_put>
   3d8c0:	f947a79c 	ldr	x28, [x28, #3912]
   3d8c4:	b000043a 	adrp	x26, c2000 <apr_os_thread_put>
   3d8c8:	f947df62 	ldr	x2, [x27, #4024]
   3d8cc:	b0000438 	adrp	x24, c2000 <apr_os_thread_put>
   3d8d0:	f9400260 	ldr	x0, [x19]
   3d8d4:	f9000381 	str	x1, [x28]
   3d8d8:	f9400661 	ldr	x1, [x19, #8]
   3d8dc:	f9000040 	str	x0, [x2]
   3d8e0:	a90707e2 	stp	x2, x1, [sp, #112]
   3d8e4:	94007091 	bl	59b28 <ap_init_rng>
   3d8e8:	f9400260 	ldr	x0, [x19]
   3d8ec:	97fff33d 	bl	3a5e0 <apr_pool_parent_get@plt>
   3d8f0:	aa0003e1 	mov	x1, x0
   3d8f4:	aa1403e0 	mov	x0, x20
   3d8f8:	97fff3ea 	bl	3a8a0 <apr_pool_abort_set@plt>
   3d8fc:	f9403be2 	ldr	x2, [sp, #112]
   3d900:	d2800003 	mov	x3, #0x0                   	// #0
   3d904:	910343e0 	add	x0, sp, #0xd0
   3d908:	f9400041 	ldr	x1, [x2]
   3d90c:	d2800002 	mov	x2, #0x0                   	// #0
   3d910:	97fff3d4 	bl	3a860 <apr_pool_create_ex@plt>
   3d914:	f9406be0 	ldr	x0, [sp, #208]
   3d918:	d0000261 	adrp	x1, 8b000 <ap_unixd_mpm_set_signals+0x408>
   3d91c:	9132c021 	add	x1, x1, #0xcb0
   3d920:	97fff2ec 	bl	3a4d0 <apr_pool_tag@plt>
   3d924:	f9406be0 	ldr	x0, [sp, #208]
   3d928:	52800102 	mov	w2, #0x8                   	// #8
   3d92c:	52800021 	mov	w1, #0x1                   	// #1
   3d930:	97fff1e8 	bl	3a0d0 <apr_array_make@plt>
   3d934:	aa0003e4 	mov	x4, x0
   3d938:	f947a323 	ldr	x3, [x25, #3904]
   3d93c:	52800102 	mov	w2, #0x8                   	// #8
   3d940:	f9406be0 	ldr	x0, [sp, #208]
   3d944:	52800021 	mov	w1, #0x1                   	// #1
   3d948:	f9000064 	str	x4, [x3]
   3d94c:	97fff1e1 	bl	3a0d0 <apr_array_make@plt>
   3d950:	aa0003e4 	mov	x4, x0
   3d954:	f9476743 	ldr	x3, [x26, #3784]
   3d958:	52800102 	mov	w2, #0x8                   	// #8
   3d95c:	f9406be0 	ldr	x0, [sp, #208]
   3d960:	52800021 	mov	w1, #0x1                   	// #1
   3d964:	f9000064 	str	x4, [x3]
   3d968:	97fff1da 	bl	3a0d0 <apr_array_make@plt>
   3d96c:	aa0003e2 	mov	x2, x0
   3d970:	f9469301 	ldr	x1, [x24, #3360]
   3d974:	aa1303e0 	mov	x0, x19
   3d978:	f9000022 	str	x2, [x1]
   3d97c:	9400a467 	bl	66b18 <ap_setup_prelinked_modules>
   3d980:	aa0003f4 	mov	x20, x0
   3d984:	b4000200 	cbz	x0, 3d9c4 <main+0x274>
   3d988:	f9400387 	ldr	x7, [x28]
   3d98c:	d0000266 	adrp	x6, 8b000 <ap_unixd_mpm_set_signals+0x408>
   3d990:	913300c6 	add	x6, x6, #0xcc0
   3d994:	f90003f4 	str	x20, [sp]
   3d998:	d2800005 	mov	x5, #0x0                   	// #0
   3d99c:	52800004 	mov	w4, #0x0                   	// #0
   3d9a0:	52800803 	mov	w3, #0x40                  	// #64
   3d9a4:	12800002 	mov	w2, #0xffffffff            	// #-1
   3d9a8:	52804321 	mov	w1, #0x219                 	// #537
   3d9ac:	d0000260 	adrp	x0, 8b000 <ap_unixd_mpm_set_signals+0x408>
   3d9b0:	9117e000 	add	x0, x0, #0x5f8
   3d9b4:	9400b7f3 	bl	6b980 <ap_log_error_>
   3d9b8:	aa1303e0 	mov	x0, x19
   3d9bc:	52800021 	mov	w1, #0x1                   	// #1
   3d9c0:	9400035c 	bl	3e730 <destroy_and_exit_process.isra.0>
   3d9c4:	aa1303e0 	mov	x0, x19
   3d9c8:	9400ac54 	bl	68b18 <ap_run_rewrite_args>
   3d9cc:	b9402262 	ldr	w2, [x19, #32]
   3d9d0:	aa1703e0 	mov	x0, x23
   3d9d4:	f9400e63 	ldr	x3, [x19, #24]
   3d9d8:	b900abff 	str	wzr, [sp, #168]
   3d9dc:	f9406be1 	ldr	x1, [sp, #208]
   3d9e0:	d0000277 	adrp	x23, 8b000 <ap_unixd_mpm_set_signals+0x408>
   3d9e4:	9102effc 	add	x28, sp, #0xbb
   3d9e8:	913462f7 	add	x23, x23, #0xd18
   3d9ec:	97fff161 	bl	39f70 <apr_getopt_init@plt>
   3d9f0:	b0000421 	adrp	x1, c2000 <apr_os_thread_put>
   3d9f4:	d0000260 	adrp	x0, 8b000 <ap_unixd_mpm_set_signals+0x408>
   3d9f8:	91300000 	add	x0, x0, #0xc00
   3d9fc:	f90043e0 	str	x0, [sp, #128]
   3da00:	f946b421 	ldr	x1, [x1, #3432]
   3da04:	d0000260 	adrp	x0, 8b000 <ap_unixd_mpm_set_signals+0x408>
   3da08:	91306000 	add	x0, x0, #0xc18
   3da0c:	f90047e0 	str	x0, [sp, #136]
   3da10:	d0000260 	adrp	x0, 8b000 <ap_unixd_mpm_set_signals+0x408>
   3da14:	913b5000 	add	x0, x0, #0xed4
   3da18:	f9003be0 	str	x0, [sp, #112]
   3da1c:	f9004be1 	str	x1, [sp, #144]
   3da20:	f9406fe0 	ldr	x0, [sp, #216]
   3da24:	aa1603e3 	mov	x3, x22
   3da28:	aa1c03e2 	mov	x2, x28
   3da2c:	aa1703e1 	mov	x1, x23
   3da30:	97fffe6c 	bl	3d3e0 <apr_getopt@plt>
   3da34:	350014c0 	cbnz	w0, 3dccc <main+0x57c>
   3da38:	3942efe0 	ldrb	w0, [sp, #187]
   3da3c:	5100fc00 	sub	w0, w0, #0x3f
   3da40:	7100dc1f 	cmp	w0, #0x37
   3da44:	54fffee8 	b.hi	3da20 <main+0x2d0>  // b.pmore
   3da48:	f9403be1 	ldr	x1, [sp, #112]
   3da4c:	78605820 	ldrh	w0, [x1, w0, uxtw #1]
   3da50:	10000061 	adr	x1, 3da5c <main+0x30c>
   3da54:	8b20a820 	add	x0, x1, w0, sxth #2
   3da58:	d61f0000 	br	x0
   3da5c:	b0000421 	adrp	x1, c2000 <apr_os_thread_put>
   3da60:	f94073e0 	ldr	x0, [sp, #224]
   3da64:	f947a821 	ldr	x1, [x1, #3920]
   3da68:	9400b3a6 	bl	6a900 <ap_parse_log_level>
   3da6c:	b4fffda0 	cbz	x0, 3da20 <main+0x2d0>
   3da70:	aa1303e0 	mov	x0, x19
   3da74:	9400033f 	bl	3e770 <usage>
   3da78:	94006ea4 	bl	59508 <ap_get_server_description>
   3da7c:	aa0003e2 	mov	x2, x0
   3da80:	d0000261 	adrp	x1, 8b000 <ap_unixd_mpm_set_signals+0x408>
   3da84:	9105c021 	add	x1, x1, #0x170
   3da88:	52800020 	mov	w0, #0x1                   	// #1
   3da8c:	97fff609 	bl	3b2b0 <__printf_chk@plt>
   3da90:	94000240 	bl	3e390 <ap_get_server_built>
   3da94:	aa0003e2 	mov	x2, x0
   3da98:	d0000261 	adrp	x1, 8b000 <ap_unixd_mpm_set_signals+0x408>
   3da9c:	52800020 	mov	w0, #0x1                   	// #1
   3daa0:	91062021 	add	x1, x1, #0x188
   3daa4:	97fff603 	bl	3b2b0 <__printf_chk@plt>
   3daa8:	aa1303e0 	mov	x0, x19
   3daac:	52800001 	mov	w1, #0x0                   	// #0
   3dab0:	94000320 	bl	3e730 <destroy_and_exit_process.isra.0>
   3dab4:	b0000420 	adrp	x0, c2000 <apr_os_thread_put>
   3dab8:	f946b400 	ldr	x0, [x0, #3432]
   3dabc:	b9400001 	ldr	w1, [x0]
   3dac0:	7100043f 	cmp	w1, #0x1
   3dac4:	54fffae1 	b.ne	3da20 <main+0x2d0>  // b.any
   3dac8:	52800061 	mov	w1, #0x3                   	// #3
   3dacc:	b9000001 	str	w1, [x0]
   3dad0:	17ffffd4 	b	3da20 <main+0x2d0>
   3dad4:	9400acc3 	bl	68de0 <ap_show_modules>
   3dad8:	aa1303e0 	mov	x0, x19
   3dadc:	52800001 	mov	w1, #0x0                   	// #0
   3dae0:	94000314 	bl	3e730 <destroy_and_exit_process.isra.0>
   3dae4:	f94073e0 	ldr	x0, [sp, #224]
   3dae8:	f90047e0 	str	x0, [sp, #136]
   3daec:	17ffffcd 	b	3da20 <main+0x2d0>
   3daf0:	f94073e0 	ldr	x0, [sp, #224]
   3daf4:	f90043e0 	str	x0, [sp, #128]
   3daf8:	17ffffca 	b	3da20 <main+0x2d0>
   3dafc:	f9476740 	ldr	x0, [x26, #3784]
   3db00:	f9400000 	ldr	x0, [x0]
   3db04:	97fffaeb 	bl	3c6b0 <apr_array_push@plt>
   3db08:	aa0003e2 	mov	x2, x0
   3db0c:	f9406be0 	ldr	x0, [sp, #208]
   3db10:	f9004fe2 	str	x2, [sp, #152]
   3db14:	f94073e1 	ldr	x1, [sp, #224]
   3db18:	97fff85a 	bl	3bc80 <apr_pstrdup@plt>
   3db1c:	f9404fe2 	ldr	x2, [sp, #152]
   3db20:	f9000040 	str	x0, [x2]
   3db24:	17ffffbf 	b	3da20 <main+0x2d0>
   3db28:	f9469300 	ldr	x0, [x24, #3360]
   3db2c:	f9400000 	ldr	x0, [x0]
   3db30:	97fffae0 	bl	3c6b0 <apr_array_push@plt>
   3db34:	d0000261 	adrp	x1, 8b000 <ap_unixd_mpm_set_signals+0x408>
   3db38:	91344021 	add	x1, x1, #0xd10
   3db3c:	f9000001 	str	x1, [x0]
   3db40:	17ffffb8 	b	3da20 <main+0x2d0>
   3db44:	940028d1 	bl	47e88 <ap_show_mpm>
   3db48:	39400000 	ldrb	w0, [x0]
   3db4c:	350016a0 	cbnz	w0, 3de20 <main+0x6d0>
   3db50:	f9404be1 	ldr	x1, [sp, #144]
   3db54:	52800080 	mov	w0, #0x4                   	// #4
   3db58:	52800035 	mov	w21, #0x1                   	// #1
   3db5c:	b9000020 	str	w0, [x1]
   3db60:	17ffffb0 	b	3da20 <main+0x2d0>
   3db64:	b0000420 	adrp	x0, c2000 <apr_os_thread_put>
   3db68:	f946e800 	ldr	x0, [x0, #3536]
   3db6c:	b900001f 	str	wzr, [x0]
   3db70:	17ffffac 	b	3da20 <main+0x2d0>
   3db74:	f9469301 	ldr	x1, [x24, #3360]
   3db78:	b0000420 	adrp	x0, c2000 <apr_os_thread_put>
   3db7c:	52800083 	mov	w3, #0x4                   	// #4
   3db80:	f9004fe1 	str	x1, [sp, #152]
   3db84:	f946b402 	ldr	x2, [x0, #3432]
   3db88:	f9400020 	ldr	x0, [x1]
   3db8c:	b9000043 	str	w3, [x2]
   3db90:	97fffac8 	bl	3c6b0 <apr_array_push@plt>
   3db94:	aa0003e2 	mov	x2, x0
   3db98:	f9404fe1 	ldr	x1, [sp, #152]
   3db9c:	f9400020 	ldr	x0, [x1]
   3dba0:	d0000261 	adrp	x1, 8b000 <ap_unixd_mpm_set_signals+0x408>
   3dba4:	91334021 	add	x1, x1, #0xcd0
   3dba8:	f9000041 	str	x1, [x2]
   3dbac:	97fffac1 	bl	3c6b0 <apr_array_push@plt>
   3dbb0:	d0000261 	adrp	x1, 8b000 <ap_unixd_mpm_set_signals+0x408>
   3dbb4:	91338021 	add	x1, x1, #0xce0
   3dbb8:	f9000001 	str	x1, [x0]
   3dbbc:	17ffff99 	b	3da20 <main+0x2d0>
   3dbc0:	f9469300 	ldr	x0, [x24, #3360]
   3dbc4:	b0000421 	adrp	x1, c2000 <apr_os_thread_put>
   3dbc8:	52800082 	mov	w2, #0x4                   	// #4
   3dbcc:	f946b421 	ldr	x1, [x1, #3432]
   3dbd0:	f9400000 	ldr	x0, [x0]
   3dbd4:	b9000022 	str	w2, [x1]
   3dbd8:	97fffab6 	bl	3c6b0 <apr_array_push@plt>
   3dbdc:	d0000261 	adrp	x1, 8b000 <ap_unixd_mpm_set_signals+0x408>
   3dbe0:	9133c021 	add	x1, x1, #0xcf0
   3dbe4:	f9000001 	str	x1, [x0]
   3dbe8:	17ffff8e 	b	3da20 <main+0x2d0>
   3dbec:	b0000420 	adrp	x0, c2000 <apr_os_thread_put>
   3dbf0:	52800081 	mov	w1, #0x4                   	// #4
   3dbf4:	52800022 	mov	w2, #0x1                   	// #1
   3dbf8:	b900abe2 	str	w2, [sp, #168]
   3dbfc:	f946b400 	ldr	x0, [x0, #3432]
   3dc00:	b9000001 	str	w1, [x0]
   3dc04:	17ffff87 	b	3da20 <main+0x2d0>
   3dc08:	f9400260 	ldr	x0, [x19]
   3dc0c:	f94073e1 	ldr	x1, [sp, #224]
   3dc10:	97fff81c 	bl	3bc80 <apr_pstrdup@plt>
   3dc14:	aa0003f4 	mov	x20, x0
   3dc18:	17ffff82 	b	3da20 <main+0x2d0>
   3dc1c:	f9469300 	ldr	x0, [x24, #3360]
   3dc20:	f9400000 	ldr	x0, [x0]
   3dc24:	97fffaa3 	bl	3c6b0 <apr_array_push@plt>
   3dc28:	aa0003e2 	mov	x2, x0
   3dc2c:	f9406be0 	ldr	x0, [sp, #208]
   3dc30:	f9004fe2 	str	x2, [sp, #152]
   3dc34:	f94073e1 	ldr	x1, [sp, #224]
   3dc38:	97fff812 	bl	3bc80 <apr_pstrdup@plt>
   3dc3c:	f9404fe2 	ldr	x2, [sp, #152]
   3dc40:	d0000261 	adrp	x1, 8b000 <ap_unixd_mpm_set_signals+0x408>
   3dc44:	91334021 	add	x1, x1, #0xcd0
   3dc48:	f9000040 	str	x0, [x2]
   3dc4c:	f94073e2 	ldr	x2, [sp, #224]
   3dc50:	f9004fe2 	str	x2, [sp, #152]
   3dc54:	aa0203e0 	mov	x0, x2
   3dc58:	97fff8a2 	bl	3bee0 <strcmp@plt>
   3dc5c:	f9404fe2 	ldr	x2, [sp, #152]
   3dc60:	34000280 	cbz	w0, 3dcb0 <main+0x560>
   3dc64:	aa0203e0 	mov	x0, x2
   3dc68:	d0000261 	adrp	x1, 8b000 <ap_unixd_mpm_set_signals+0x408>
   3dc6c:	91338021 	add	x1, x1, #0xce0
   3dc70:	f9004fe2 	str	x2, [sp, #152]
   3dc74:	97fff89b 	bl	3bee0 <strcmp@plt>
   3dc78:	f9404fe2 	ldr	x2, [sp, #152]
   3dc7c:	340001a0 	cbz	w0, 3dcb0 <main+0x560>
   3dc80:	aa0203e0 	mov	x0, x2
   3dc84:	d0000261 	adrp	x1, 8b000 <ap_unixd_mpm_set_signals+0x408>
   3dc88:	9133c021 	add	x1, x1, #0xcf0
   3dc8c:	f9004fe2 	str	x2, [sp, #152]
   3dc90:	97fff894 	bl	3bee0 <strcmp@plt>
   3dc94:	f9404fe2 	ldr	x2, [sp, #152]
   3dc98:	340000c0 	cbz	w0, 3dcb0 <main+0x560>
   3dc9c:	d0000261 	adrp	x1, 8b000 <ap_unixd_mpm_set_signals+0x408>
   3dca0:	aa0203e0 	mov	x0, x2
   3dca4:	91340021 	add	x1, x1, #0xd00
   3dca8:	97fff88e 	bl	3bee0 <strcmp@plt>
   3dcac:	35ffeba0 	cbnz	w0, 3da20 <main+0x2d0>
   3dcb0:	b0000420 	adrp	x0, c2000 <apr_os_thread_put>
   3dcb4:	52800081 	mov	w1, #0x4                   	// #4
   3dcb8:	f946b400 	ldr	x0, [x0, #3432]
   3dcbc:	b9000001 	str	w1, [x0]
   3dcc0:	17ffff58 	b	3da20 <main+0x2d0>
   3dcc4:	f947a320 	ldr	x0, [x25, #3904]
   3dcc8:	17ffff8e 	b	3db00 <main+0x3b0>
   3dccc:	b000043c 	adrp	x28, c2000 <apr_os_thread_put>
   3dcd0:	f946b781 	ldr	x1, [x28, #3432]
   3dcd4:	b9400022 	ldr	w2, [x1]
   3dcd8:	7100045f 	cmp	w2, #0x1
   3dcdc:	54000061 	b.ne	3dce8 <main+0x598>  // b.any
   3dce0:	52800042 	mov	w2, #0x2                   	// #2
   3dce4:	b9000022 	str	w2, [x1]
   3dce8:	52822fc1 	mov	w1, #0x117e                	// #4478
   3dcec:	72a00021 	movk	w1, #0x1, lsl #16
   3dcf0:	6b01001f 	cmp	w0, w1
   3dcf4:	54ffebe1 	b.ne	3da70 <main+0x320>  // b.any
   3dcf8:	f9406fe0 	ldr	x0, [sp, #216]
   3dcfc:	b9401801 	ldr	w1, [x0, #24]
   3dd00:	b9402400 	ldr	w0, [x0, #36]
   3dd04:	6b00003f 	cmp	w1, w0
   3dd08:	54ffeb4b 	b.lt	3da70 <main+0x320>  // b.tstop
   3dd0c:	f947df7b 	ldr	x27, [x27, #4024]
   3dd10:	b0000436 	adrp	x22, c2000 <apr_os_thread_put>
   3dd14:	52800045 	mov	w5, #0x2                   	// #2
   3dd18:	d2800003 	mov	x3, #0x0                   	// #0
   3dd1c:	f9468ec4 	ldr	x4, [x22, #3352]
   3dd20:	d2800002 	mov	x2, #0x0                   	// #0
   3dd24:	f9400361 	ldr	x1, [x27]
   3dd28:	910303e0 	add	x0, sp, #0xc0
   3dd2c:	b9000085 	str	w5, [x4]
   3dd30:	910323f7 	add	x23, sp, #0xc8
   3dd34:	b000043a 	adrp	x26, c2000 <apr_os_thread_put>
   3dd38:	97fff2ca 	bl	3a860 <apr_pool_create_ex@plt>
   3dd3c:	f94063e0 	ldr	x0, [sp, #192]
   3dd40:	d0000261 	adrp	x1, 8b000 <ap_unixd_mpm_set_signals+0x408>
   3dd44:	9134e021 	add	x1, x1, #0xd38
   3dd48:	97fff1e2 	bl	3a4d0 <apr_pool_tag@plt>
   3dd4c:	f9403fe1 	ldr	x1, [sp, #120]
   3dd50:	d2800003 	mov	x3, #0x0                   	// #0
   3dd54:	d2800002 	mov	x2, #0x0                   	// #0
   3dd58:	aa1703e0 	mov	x0, x23
   3dd5c:	97fff2c1 	bl	3a860 <apr_pool_create_ex@plt>
   3dd60:	f94067e0 	ldr	x0, [sp, #200]
   3dd64:	d0000261 	adrp	x1, 8b000 <ap_unixd_mpm_set_signals+0x408>
   3dd68:	91350021 	add	x1, x1, #0xd40
   3dd6c:	97fff1d9 	bl	3a4d0 <apr_pool_tag@plt>
   3dd70:	f9476f40 	ldr	x0, [x26, #3800]
   3dd74:	f94043e1 	ldr	x1, [sp, #128]
   3dd78:	f9000001 	str	x1, [x0]
   3dd7c:	b4000094 	cbz	x20, 3dd8c <main+0x63c>
   3dd80:	f9400260 	ldr	x0, [x19]
   3dd84:	aa1403e1 	mov	x1, x20
   3dd88:	9400b72c 	bl	6ba38 <ap_replace_stderr_log>
   3dd8c:	b000043b 	adrp	x27, c2000 <apr_os_thread_put>
   3dd90:	b0000434 	adrp	x20, c2000 <apr_os_thread_put>
   3dd94:	f94047e2 	ldr	x2, [sp, #136]
   3dd98:	aa1303e0 	mov	x0, x19
   3dd9c:	f94067e1 	ldr	x1, [sp, #200]
   3dda0:	f947f778 	ldr	x24, [x27, #4072]
   3dda4:	aa1803e3 	mov	x3, x24
   3dda8:	9400aa1e 	bl	68620 <ap_read_config>
   3ddac:	f9469699 	ldr	x25, [x20, #3368]
   3ddb0:	f9000320 	str	x0, [x25]
   3ddb4:	b40003e0 	cbz	x0, 3de30 <main+0x6e0>
   3ddb8:	b0000422 	adrp	x2, c2000 <apr_os_thread_put>
   3ddbc:	aa1903e1 	mov	x1, x25
   3ddc0:	f9403fe0 	ldr	x0, [sp, #120]
   3ddc4:	f9478443 	ldr	x3, [x2, #3848]
   3ddc8:	b0000422 	adrp	x2, c2000 <apr_os_thread_put>
   3ddcc:	f9477c42 	ldr	x2, [x2, #3832]
   3ddd0:	97fff4d4 	bl	3b120 <apr_pool_cleanup_register@plt>
   3ddd4:	35000275 	cbnz	w21, 3de20 <main+0x6d0>
   3ddd8:	97fff47e 	bl	3afd0 <apr_hook_sort_all@plt>
   3dddc:	a94c0be1 	ldp	x1, x2, [sp, #192]
   3dde0:	f9403fe0 	ldr	x0, [sp, #120]
   3dde4:	94009ddb 	bl	65550 <ap_run_pre_config>
   3dde8:	340002a0 	cbz	w0, 3de3c <main+0x6ec>
   3ddec:	d0000266 	adrp	x6, 8b000 <ap_unixd_mpm_set_signals+0x408>
   3ddf0:	913520c6 	add	x6, x6, #0xd48
   3ddf4:	d2800005 	mov	x5, #0x0                   	// #0
   3ddf8:	52800004 	mov	w4, #0x0                   	// #0
   3ddfc:	52800863 	mov	w3, #0x43                  	// #67
   3de00:	12800002 	mov	w2, #0xffffffff            	// #-1
   3de04:	d0000260 	adrp	x0, 8b000 <ap_unixd_mpm_set_signals+0x408>
   3de08:	528057e1 	mov	w1, #0x2bf                 	// #703
   3de0c:	9117e000 	add	x0, x0, #0x5f8
   3de10:	9400b6dc 	bl	6b980 <ap_log_error_>
   3de14:	aa1303e0 	mov	x0, x19
   3de18:	52800021 	mov	w1, #0x1                   	// #1
   3de1c:	94000245 	bl	3e730 <destroy_and_exit_process.isra.0>
   3de20:	94000164 	bl	3e3b0 <show_compile_settings>
   3de24:	aa1303e0 	mov	x0, x19
   3de28:	52800001 	mov	w1, #0x0                   	// #0
   3de2c:	94000241 	bl	3e730 <destroy_and_exit_process.isra.0>
   3de30:	34ffff35 	cbz	w21, 3de14 <main+0x6c4>
   3de34:	9400015f 	bl	3e3b0 <show_compile_settings>
   3de38:	17fffff7 	b	3de14 <main+0x6c4>
   3de3c:	f9400301 	ldr	x1, [x24]
   3de40:	f9400320 	ldr	x0, [x25]
   3de44:	f9400662 	ldr	x2, [x19, #8]
   3de48:	f94067e3 	ldr	x3, [sp, #200]
   3de4c:	9400a807 	bl	67e68 <ap_process_config_tree>
   3de50:	35fffe20 	cbnz	w0, 3de14 <main+0x6c4>
   3de54:	f9400321 	ldr	x1, [x25]
   3de58:	f9403ff5 	ldr	x21, [sp, #120]
   3de5c:	aa1503e0 	mov	x0, x21
   3de60:	9400a984 	bl	68470 <ap_fixup_virtual_hosts>
   3de64:	f9400321 	ldr	x1, [x25]
   3de68:	aa1503e0 	mov	x0, x21
   3de6c:	940006f1 	bl	3fa30 <ap_fini_vhost_config>
   3de70:	97fff458 	bl	3afd0 <apr_hook_sort_all@plt>
   3de74:	a94c0be1 	ldp	x1, x2, [sp, #192]
   3de78:	aa1503e0 	mov	x0, x21
   3de7c:	f9400323 	ldr	x3, [x25]
   3de80:	94009e18 	bl	656e0 <ap_run_check_config>
   3de84:	35000920 	cbnz	w0, 3dfa8 <main+0x858>
   3de88:	f946b79c 	ldr	x28, [x28, #3432]
   3de8c:	b9400380 	ldr	w0, [x28]
   3de90:	7100081f 	cmp	w0, #0x2
   3de94:	54000340 	b.eq	3defc <main+0x7ac>  // b.none
   3de98:	b940abe0 	ldr	w0, [sp, #168]
   3de9c:	340009e0 	cbz	w0, 3dfd8 <main+0x888>
   3dea0:	9400ab30 	bl	68b60 <ap_show_directives>
   3dea4:	aa1303e0 	mov	x0, x19
   3dea8:	52800001 	mov	w1, #0x0                   	// #0
   3deac:	94000221 	bl	3e730 <destroy_and_exit_process.isra.0>
   3deb0:	97fff158 	bl	3a410 <apr_time_now@plt>
   3deb4:	9103a3f3 	add	x19, sp, #0xe8
   3deb8:	aa0003e1 	mov	x1, x0
   3debc:	aa1303e0 	mov	x0, x19
   3dec0:	97fff12c 	bl	3a370 <apr_ctime@plt>
   3dec4:	b0000420 	adrp	x0, c2000 <apr_os_thread_put>
   3dec8:	aa1303e3 	mov	x3, x19
   3decc:	f94053e1 	ldr	x1, [sp, #160]
   3ded0:	2a1503e4 	mov	w4, w21
   3ded4:	f946ac00 	ldr	x0, [x0, #3416]
   3ded8:	d0000262 	adrp	x2, 8b000 <ap_unixd_mpm_set_signals+0x408>
   3dedc:	f9400025 	ldr	x5, [x1]
   3dee0:	9131a042 	add	x2, x2, #0xc68
   3dee4:	f9400000 	ldr	x0, [x0]
   3dee8:	52800021 	mov	w1, #0x1                   	// #1
   3deec:	97fff7f1 	bl	3beb0 <__fprintf_chk@plt>
   3def0:	97fff0e8 	bl	3a290 <apr_terminate@plt>
   3def4:	52800020 	mov	w0, #0x1                   	// #1
   3def8:	97fff0ae 	bl	3a1b0 <exit@plt>
   3defc:	d0000260 	adrp	x0, 8b000 <ap_unixd_mpm_set_signals+0x408>
   3df00:	913b0000 	add	x0, x0, #0xec0
   3df04:	97fff8af 	bl	3c1c0 <apr_dynamic_fn_retrieve@plt>
   3df08:	aa0003e2 	mov	x2, x0
   3df0c:	b40000a0 	cbz	x0, 3df20 <main+0x7d0>
   3df10:	f9403fe1 	ldr	x1, [sp, #120]
   3df14:	9102f3e0 	add	x0, sp, #0xbc
   3df18:	d63f0040 	blr	x2
   3df1c:	35000580 	cbnz	w0, 3dfcc <main+0x87c>
   3df20:	f94063e0 	ldr	x0, [sp, #192]
   3df24:	97fff2a7 	bl	3a9c0 <apr_pool_clear@plt>
   3df28:	f9469695 	ldr	x21, [x20, #3368]
   3df2c:	a94c0be1 	ldp	x1, x2, [sp, #192]
   3df30:	f94002a3 	ldr	x3, [x21]
   3df34:	f9403fe0 	ldr	x0, [sp, #120]
   3df38:	94009f14 	bl	65b88 <ap_run_open_logs>
   3df3c:	34000140 	cbz	w0, 3df64 <main+0x814>
   3df40:	d0000266 	adrp	x6, 8b000 <ap_unixd_mpm_set_signals+0x408>
   3df44:	d2800005 	mov	x5, #0x0                   	// #0
   3df48:	9136a0c6 	add	x6, x6, #0xda8
   3df4c:	52800004 	mov	w4, #0x0                   	// #0
   3df50:	52800863 	mov	w3, #0x43                  	// #67
   3df54:	12800002 	mov	w2, #0xffffffff            	// #-1
   3df58:	d0000260 	adrp	x0, 8b000 <ap_unixd_mpm_set_signals+0x408>
   3df5c:	52805ea1 	mov	w1, #0x2f5                 	// #757
   3df60:	17ffffab 	b	3de0c <main+0x6bc>
   3df64:	a94c0be1 	ldp	x1, x2, [sp, #192]
   3df68:	f94002a3 	ldr	x3, [x21]
   3df6c:	f9403fe0 	ldr	x0, [sp, #120]
   3df70:	94009e9c 	bl	659e0 <ap_run_post_config>
   3df74:	34000440 	cbz	w0, 3dffc <main+0x8ac>
   3df78:	d0000266 	adrp	x6, 8b000 <ap_unixd_mpm_set_signals+0x408>
   3df7c:	d2800005 	mov	x5, #0x0                   	// #0
   3df80:	913720c6 	add	x6, x6, #0xdc8
   3df84:	52800004 	mov	w4, #0x0                   	// #0
   3df88:	52800863 	mov	w3, #0x43                  	// #67
   3df8c:	12800002 	mov	w2, #0xffffffff            	// #-1
   3df90:	d0000260 	adrp	x0, 8b000 <ap_unixd_mpm_set_signals+0x408>
   3df94:	52805f61 	mov	w1, #0x2fb                 	// #763
   3df98:	17ffff9d 	b	3de0c <main+0x6bc>
   3df9c:	d0000266 	adrp	x6, 8b000 <ap_unixd_mpm_set_signals+0x408>
   3dfa0:	912fa0c6 	add	x6, x6, #0xbe8
   3dfa4:	17fffdff 	b	3d7a0 <main+0x50>
   3dfa8:	d0000266 	adrp	x6, 8b000 <ap_unixd_mpm_set_signals+0x408>
   3dfac:	d2800005 	mov	x5, #0x0                   	// #0
   3dfb0:	9135c0c6 	add	x6, x6, #0xd70
   3dfb4:	52800004 	mov	w4, #0x0                   	// #0
   3dfb8:	52800863 	mov	w3, #0x43                  	// #67
   3dfbc:	12800002 	mov	w2, #0xffffffff            	// #-1
   3dfc0:	d0000260 	adrp	x0, 8b000 <ap_unixd_mpm_set_signals+0x408>
   3dfc4:	52805a21 	mov	w1, #0x2d1                 	// #721
   3dfc8:	17ffff91 	b	3de0c <main+0x6bc>
   3dfcc:	b940bfe1 	ldr	w1, [sp, #188]
   3dfd0:	aa1303e0 	mov	x0, x19
   3dfd4:	940001d7 	bl	3e730 <destroy_and_exit_process.isra.0>
   3dfd8:	f9400321 	ldr	x1, [x25]
   3dfdc:	f9403fe0 	ldr	x0, [sp, #120]
   3dfe0:	94009e2a 	bl	65888 <ap_run_test_config>
   3dfe4:	b9400380 	ldr	w0, [x28]
   3dfe8:	71000c1f 	cmp	w0, #0x3
   3dfec:	54001360 	b.eq	3e258 <main+0xb08>  // b.none
   3dff0:	aa1303e0 	mov	x0, x19
   3dff4:	52800001 	mov	w1, #0x0                   	// #0
   3dff8:	940001ce 	bl	3e730 <destroy_and_exit_process.isra.0>
   3dffc:	f94067e0 	ldr	x0, [sp, #200]
   3e000:	90000438 	adrp	x24, c2000 <apr_os_thread_put>
   3e004:	97fff9b3 	bl	3c6d0 <apr_pool_destroy@plt>
   3e008:	f947f77b 	ldr	x27, [x27, #4072]
   3e00c:	f9471f18 	ldr	x24, [x24, #3640]
   3e010:	f9468ed9 	ldr	x25, [x22, #3352]
   3e014:	52800061 	mov	w1, #0x3                   	// #3
   3e018:	aa1303e0 	mov	x0, x19
   3e01c:	b9000321 	str	w1, [x25]
   3e020:	9400019a 	bl	3e688 <reset_process_pconf>
   3e024:	b9400300 	ldr	w0, [x24]
   3e028:	90000421 	adrp	x1, c2000 <apr_os_thread_put>
   3e02c:	11000400 	add	w0, w0, #0x1
   3e030:	b9000300 	str	w0, [x24]
   3e034:	f9468435 	ldr	x21, [x1, #3336]
   3e038:	52800081 	mov	w1, #0x4                   	// #4
   3e03c:	b9000321 	str	w1, [x25]
   3e040:	14000004 	b	3e050 <main+0x900>
   3e044:	f9403fe1 	ldr	x1, [sp, #120]
   3e048:	910022b5 	add	x21, x21, #0x8
   3e04c:	9400a1a9 	bl	666f0 <ap_register_hooks>
   3e050:	f94002a0 	ldr	x0, [x21]
   3e054:	b5ffff80 	cbnz	x0, 3e044 <main+0x8f4>
   3e058:	f9403fe1 	ldr	x1, [sp, #120]
   3e05c:	d2800003 	mov	x3, #0x0                   	// #0
   3e060:	d2800002 	mov	x2, #0x0                   	// #0
   3e064:	aa1703e0 	mov	x0, x23
   3e068:	f900037f 	str	xzr, [x27]
   3e06c:	97fff1fd 	bl	3a860 <apr_pool_create_ex@plt>
   3e070:	f94067e0 	ldr	x0, [sp, #200]
   3e074:	b0000261 	adrp	x1, 8b000 <ap_unixd_mpm_set_signals+0x408>
   3e078:	91350021 	add	x1, x1, #0xd40
   3e07c:	97fff115 	bl	3a4d0 <apr_pool_tag@plt>
   3e080:	a9480be4 	ldp	x4, x2, [sp, #128]
   3e084:	aa1b03e3 	mov	x3, x27
   3e088:	f9476f40 	ldr	x0, [x26, #3800]
   3e08c:	f94067e1 	ldr	x1, [sp, #200]
   3e090:	f9000004 	str	x4, [x0]
   3e094:	aa1303e0 	mov	x0, x19
   3e098:	9400a962 	bl	68620 <ap_read_config>
   3e09c:	f9469695 	ldr	x21, [x20, #3368]
   3e0a0:	f90002a0 	str	x0, [x21]
   3e0a4:	b4ffeb80 	cbz	x0, 3de14 <main+0x6c4>
   3e0a8:	90000420 	adrp	x0, c2000 <apr_os_thread_put>
   3e0ac:	aa1503e1 	mov	x1, x21
   3e0b0:	f9403ffc 	ldr	x28, [sp, #120]
   3e0b4:	f9478403 	ldr	x3, [x0, #3848]
   3e0b8:	90000420 	adrp	x0, c2000 <apr_os_thread_put>
   3e0bc:	f9477c02 	ldr	x2, [x0, #3832]
   3e0c0:	aa1c03e0 	mov	x0, x28
   3e0c4:	97fff417 	bl	3b120 <apr_pool_cleanup_register@plt>
   3e0c8:	97fff3c2 	bl	3afd0 <apr_hook_sort_all@plt>
   3e0cc:	a94c0be1 	ldp	x1, x2, [sp, #192]
   3e0d0:	aa1c03e0 	mov	x0, x28
   3e0d4:	94009d1f 	bl	65550 <ap_run_pre_config>
   3e0d8:	35000ae0 	cbnz	w0, 3e234 <main+0xae4>
   3e0dc:	f94002a0 	ldr	x0, [x21]
   3e0e0:	f9400361 	ldr	x1, [x27]
   3e0e4:	f9400662 	ldr	x2, [x19, #8]
   3e0e8:	f94067e3 	ldr	x3, [sp, #200]
   3e0ec:	9400a75f 	bl	67e68 <ap_process_config_tree>
   3e0f0:	35ffe920 	cbnz	w0, 3de14 <main+0x6c4>
   3e0f4:	f94002a1 	ldr	x1, [x21]
   3e0f8:	f9403ffc 	ldr	x28, [sp, #120]
   3e0fc:	aa1c03e0 	mov	x0, x28
   3e100:	9400a8dc 	bl	68470 <ap_fixup_virtual_hosts>
   3e104:	f94002a1 	ldr	x1, [x21]
   3e108:	aa1c03e0 	mov	x0, x28
   3e10c:	94000649 	bl	3fa30 <ap_fini_vhost_config>
   3e110:	97fff3b0 	bl	3afd0 <apr_hook_sort_all@plt>
   3e114:	a94c0be1 	ldp	x1, x2, [sp, #192]
   3e118:	aa1c03e0 	mov	x0, x28
   3e11c:	f94002a3 	ldr	x3, [x21]
   3e120:	94009d70 	bl	656e0 <ap_run_check_config>
   3e124:	35000760 	cbnz	w0, 3e210 <main+0xac0>
   3e128:	f94063e0 	ldr	x0, [sp, #192]
   3e12c:	97fff225 	bl	3a9c0 <apr_pool_clear@plt>
   3e130:	a94c0be1 	ldp	x1, x2, [sp, #192]
   3e134:	f94002a3 	ldr	x3, [x21]
   3e138:	f9403fe0 	ldr	x0, [sp, #120]
   3e13c:	94009e93 	bl	65b88 <ap_run_open_logs>
   3e140:	35000560 	cbnz	w0, 3e1ec <main+0xa9c>
   3e144:	a94c0be1 	ldp	x1, x2, [sp, #192]
   3e148:	f94002a3 	ldr	x3, [x21]
   3e14c:	f9403fe0 	ldr	x0, [sp, #120]
   3e150:	94009e24 	bl	659e0 <ap_run_post_config>
   3e154:	2a0003fc 	mov	w28, w0
   3e158:	35000380 	cbnz	w0, 3e1c8 <main+0xa78>
   3e15c:	f94067e0 	ldr	x0, [sp, #200]
   3e160:	97fff95c 	bl	3c6d0 <apr_pool_destroy@plt>
   3e164:	9400a073 	bl	66330 <ap_run_optional_fn_retrieve>
   3e168:	f9468ec3 	ldr	x3, [x22, #3352]
   3e16c:	528000a4 	mov	w4, #0x5                   	// #5
   3e170:	f94002a2 	ldr	x2, [x21]
   3e174:	f9403fe0 	ldr	x0, [sp, #120]
   3e178:	b9000064 	str	w4, [x3]
   3e17c:	f94063e1 	ldr	x1, [sp, #192]
   3e180:	94002164 	bl	46710 <ap_run_mpm>
   3e184:	34fff480 	cbz	w0, 3e014 <main+0x8c4>
   3e188:	3100081f 	cmn	w0, #0x2
   3e18c:	54000180 	b.eq	3e1bc <main+0xa6c>  // b.none
   3e190:	2a0003fc 	mov	w28, w0
   3e194:	b0000266 	adrp	x6, 8b000 <ap_unixd_mpm_set_signals+0x408>
   3e198:	b0000260 	adrp	x0, 8b000 <ap_unixd_mpm_set_signals+0x408>
   3e19c:	913a60c6 	add	x6, x6, #0xe98
   3e1a0:	9117e000 	add	x0, x0, #0x5f8
   3e1a4:	d2800005 	mov	x5, #0x0                   	// #0
   3e1a8:	52800004 	mov	w4, #0x0                   	// #0
   3e1ac:	52800003 	mov	w3, #0x0                   	// #0
   3e1b0:	12800002 	mov	w2, #0xffffffff            	// #-1
   3e1b4:	52806a61 	mov	w1, #0x353                 	// #851
   3e1b8:	9400b5f2 	bl	6b980 <ap_log_error_>
   3e1bc:	2a1c03e1 	mov	w1, w28
   3e1c0:	aa1303e0 	mov	x0, x19
   3e1c4:	9400015b 	bl	3e730 <destroy_and_exit_process.isra.0>
   3e1c8:	b0000266 	adrp	x6, 8b000 <ap_unixd_mpm_set_signals+0x408>
   3e1cc:	d2800005 	mov	x5, #0x0                   	// #0
   3e1d0:	9139c0c6 	add	x6, x6, #0xe70
   3e1d4:	52800004 	mov	w4, #0x0                   	// #0
   3e1d8:	52800003 	mov	w3, #0x0                   	// #0
   3e1dc:	12800002 	mov	w2, #0xffffffff            	// #-1
   3e1e0:	b0000260 	adrp	x0, 8b000 <ap_unixd_mpm_set_signals+0x408>
   3e1e4:	528067c1 	mov	w1, #0x33e                 	// #830
   3e1e8:	17ffff09 	b	3de0c <main+0x6bc>
   3e1ec:	b0000266 	adrp	x6, 8b000 <ap_unixd_mpm_set_signals+0x408>
   3e1f0:	d2800005 	mov	x5, #0x0                   	// #0
   3e1f4:	913920c6 	add	x6, x6, #0xe48
   3e1f8:	52800004 	mov	w4, #0x0                   	// #0
   3e1fc:	52800003 	mov	w3, #0x0                   	// #0
   3e200:	12800002 	mov	w2, #0xffffffff            	// #-1
   3e204:	b0000260 	adrp	x0, 8b000 <ap_unixd_mpm_set_signals+0x408>
   3e208:	52806701 	mov	w1, #0x338                 	// #824
   3e20c:	17ffff00 	b	3de0c <main+0x6bc>
   3e210:	b0000266 	adrp	x6, 8b000 <ap_unixd_mpm_set_signals+0x408>
   3e214:	d2800005 	mov	x5, #0x0                   	// #0
   3e218:	913860c6 	add	x6, x6, #0xe18
   3e21c:	52800004 	mov	w4, #0x0                   	// #0
   3e220:	52800003 	mov	w3, #0x0                   	// #0
   3e224:	12800002 	mov	w2, #0xffffffff            	// #-1
   3e228:	b0000260 	adrp	x0, 8b000 <ap_unixd_mpm_set_signals+0x408>
   3e22c:	52806621 	mov	w1, #0x331                 	// #817
   3e230:	17fffef7 	b	3de0c <main+0x6bc>
   3e234:	b0000266 	adrp	x6, 8b000 <ap_unixd_mpm_set_signals+0x408>
   3e238:	d2800005 	mov	x5, #0x0                   	// #0
   3e23c:	9137a0c6 	add	x6, x6, #0xde8
   3e240:	52800004 	mov	w4, #0x0                   	// #0
   3e244:	52800003 	mov	w3, #0x0                   	// #0
   3e248:	12800002 	mov	w2, #0xffffffff            	// #-1
   3e24c:	b0000260 	adrp	x0, 8b000 <ap_unixd_mpm_set_signals+0x408>
   3e250:	528063c1 	mov	w1, #0x31e                 	// #798
   3e254:	17fffeee 	b	3de0c <main+0x6bc>
   3e258:	b0000266 	adrp	x6, 8b000 <ap_unixd_mpm_set_signals+0x408>
   3e25c:	b0000260 	adrp	x0, 8b000 <ap_unixd_mpm_set_signals+0x408>
   3e260:	913660c6 	add	x6, x6, #0xd98
   3e264:	9117e000 	add	x0, x0, #0x5f8
   3e268:	d2800005 	mov	x5, #0x0                   	// #0
   3e26c:	52800004 	mov	w4, #0x0                   	// #0
   3e270:	52800803 	mov	w3, #0x40                  	// #64
   3e274:	12800002 	mov	w2, #0xffffffff            	// #-1
   3e278:	52805bc1 	mov	w1, #0x2de                 	// #734
   3e27c:	9400b5c1 	bl	6b980 <ap_log_error_>
   3e280:	17ffff5c 	b	3dff0 <main+0x8a0>

000000000003e284 <_start>:
   3e284:	d280001d 	mov	x29, #0x0                   	// #0
   3e288:	d280001e 	mov	x30, #0x0                   	// #0
   3e28c:	aa0003e5 	mov	x5, x0
   3e290:	f94003e1 	ldr	x1, [sp]
   3e294:	910023e2 	add	x2, sp, #0x8
   3e298:	910003e6 	mov	x6, sp
   3e29c:	90000420 	adrp	x0, c2000 <apr_os_thread_put>
   3e2a0:	f9479400 	ldr	x0, [x0, #3880]
   3e2a4:	90000423 	adrp	x3, c2000 <apr_os_thread_put>
   3e2a8:	f9477463 	ldr	x3, [x3, #3816]
   3e2ac:	90000424 	adrp	x4, c2000 <apr_os_thread_put>
   3e2b0:	f9467c84 	ldr	x4, [x4, #3320]
   3e2b4:	97fff3f3 	bl	3b280 <__libc_start_main@plt>
   3e2b8:	97fff60a 	bl	3bae0 <abort@plt>

000000000003e2bc <call_weak_fn>:
   3e2bc:	90000420 	adrp	x0, c2000 <apr_os_thread_put>
   3e2c0:	f9473c00 	ldr	x0, [x0, #3704]
   3e2c4:	b4000040 	cbz	x0, 3e2cc <call_weak_fn+0x10>
   3e2c8:	17fff5ba 	b	3b9b0 <__gmon_start__@plt>
   3e2cc:	d65f03c0 	ret

000000000003e2d0 <deregister_tm_clones>:
   3e2d0:	90000440 	adrp	x0, c6000 <ap_hack_ap_set_deprecated>
   3e2d4:	9117a000 	add	x0, x0, #0x5e8
   3e2d8:	90000441 	adrp	x1, c6000 <ap_hack_ap_set_deprecated>
   3e2dc:	9117a021 	add	x1, x1, #0x5e8
   3e2e0:	eb00003f 	cmp	x1, x0
   3e2e4:	540000c0 	b.eq	3e2fc <deregister_tm_clones+0x2c>  // b.none
   3e2e8:	90000421 	adrp	x1, c2000 <apr_os_thread_put>
   3e2ec:	f946a021 	ldr	x1, [x1, #3392]
   3e2f0:	b4000061 	cbz	x1, 3e2fc <deregister_tm_clones+0x2c>
   3e2f4:	aa0103f0 	mov	x16, x1
   3e2f8:	d61f0200 	br	x16
   3e2fc:	d65f03c0 	ret

000000000003e300 <register_tm_clones>:
   3e300:	90000440 	adrp	x0, c6000 <ap_hack_ap_set_deprecated>
   3e304:	9117a000 	add	x0, x0, #0x5e8
   3e308:	90000441 	adrp	x1, c6000 <ap_hack_ap_set_deprecated>
   3e30c:	9117a021 	add	x1, x1, #0x5e8
   3e310:	cb000021 	sub	x1, x1, x0
   3e314:	d37ffc22 	lsr	x2, x1, #63
   3e318:	8b810c41 	add	x1, x2, x1, asr #3
   3e31c:	eb8107ff 	cmp	xzr, x1, asr #1
   3e320:	9341fc21 	asr	x1, x1, #1
   3e324:	540000c0 	b.eq	3e33c <register_tm_clones+0x3c>  // b.none
   3e328:	90000422 	adrp	x2, c2000 <apr_os_thread_put>
   3e32c:	f947d042 	ldr	x2, [x2, #4000]
   3e330:	b4000062 	cbz	x2, 3e33c <register_tm_clones+0x3c>
   3e334:	aa0203f0 	mov	x16, x2
   3e338:	d61f0200 	br	x16
   3e33c:	d65f03c0 	ret

000000000003e340 <__do_global_dtors_aux>:
   3e340:	a9be7bfd 	stp	x29, x30, [sp, #-32]!
   3e344:	910003fd 	mov	x29, sp
   3e348:	f9000bf3 	str	x19, [sp, #16]
   3e34c:	90000453 	adrp	x19, c6000 <ap_hack_ap_set_deprecated>
   3e350:	3957a260 	ldrb	w0, [x19, #1512]
   3e354:	35000140 	cbnz	w0, 3e37c <__do_global_dtors_aux+0x3c>
   3e358:	90000420 	adrp	x0, c2000 <apr_os_thread_put>
   3e35c:	f946a800 	ldr	x0, [x0, #3408]
   3e360:	b4000080 	cbz	x0, 3e370 <__do_global_dtors_aux+0x30>
   3e364:	b0000420 	adrp	x0, c3000 <__data_start>
   3e368:	f9400400 	ldr	x0, [x0, #8]
   3e36c:	97fff115 	bl	3a7c0 <__cxa_finalize@plt>
   3e370:	97ffffd8 	bl	3e2d0 <deregister_tm_clones>
   3e374:	52800020 	mov	w0, #0x1                   	// #1
   3e378:	3917a260 	strb	w0, [x19, #1512]
   3e37c:	f9400bf3 	ldr	x19, [sp, #16]
   3e380:	a8c27bfd 	ldp	x29, x30, [sp], #32
   3e384:	d65f03c0 	ret

000000000003e388 <frame_dummy>:
   3e388:	17ffffde 	b	3e300 <register_tm_clones>
   3e38c:	d503201f 	nop

000000000003e390 <ap_get_server_built>:
   3e390:	b0000260 	adrp	x0, 8b000 <ap_unixd_mpm_set_signals+0x408>
   3e394:	91056000 	add	x0, x0, #0x158
   3e398:	d65f03c0 	ret
   3e39c:	d503201f 	nop

000000000003e3a0 <abort_on_oom>:
   3e3a0:	a9bf7bfd 	stp	x29, x30, [sp, #-16]!
   3e3a4:	910003fd 	mov	x29, sp
   3e3a8:	94001ba4 	bl	45238 <ap_abort_on_oom>
   3e3ac:	d503201f 	nop

000000000003e3b0 <show_compile_settings>:
   3e3b0:	a9bc7bfd 	stp	x29, x30, [sp, #-64]!
   3e3b4:	910003fd 	mov	x29, sp
   3e3b8:	a90153f3 	stp	x19, x20, [sp, #16]
   3e3bc:	90000433 	adrp	x19, c2000 <apr_os_thread_put>
   3e3c0:	f9474260 	ldr	x0, [x19, #3712]
   3e3c4:	a9025bf5 	stp	x21, x22, [sp, #32]
   3e3c8:	9100d3f6 	add	x22, sp, #0x34
   3e3cc:	f9400001 	ldr	x1, [x0]
   3e3d0:	f9001fe1 	str	x1, [sp, #56]
   3e3d4:	d2800001 	mov	x1, #0x0                   	// #0
   3e3d8:	94006c4c 	bl	59508 <ap_get_server_description>
   3e3dc:	aa0003e2 	mov	x2, x0
   3e3e0:	b0000261 	adrp	x1, 8b000 <ap_unixd_mpm_set_signals+0x408>
   3e3e4:	9105c021 	add	x1, x1, #0x170
   3e3e8:	52800020 	mov	w0, #0x1                   	// #1
   3e3ec:	97fff3b1 	bl	3b2b0 <__printf_chk@plt>
   3e3f0:	97ffffe8 	bl	3e390 <ap_get_server_built>
   3e3f4:	aa0003e2 	mov	x2, x0
   3e3f8:	b0000261 	adrp	x1, 8b000 <ap_unixd_mpm_set_signals+0x408>
   3e3fc:	52800020 	mov	w0, #0x1                   	// #1
   3e400:	91062021 	add	x1, x1, #0x188
   3e404:	97fff3ab 	bl	3b2b0 <__printf_chk@plt>
   3e408:	b0000261 	adrp	x1, 8b000 <ap_unixd_mpm_set_signals+0x408>
   3e40c:	52805262 	mov	w2, #0x293                 	// #659
   3e410:	91068021 	add	x1, x1, #0x1a0
   3e414:	72a02662 	movk	w2, #0x133, lsl #16
   3e418:	52800fc3 	mov	w3, #0x7e                  	// #126
   3e41c:	52800020 	mov	w0, #0x1                   	// #1
   3e420:	97fff3a4 	bl	3b2b0 <__printf_chk@plt>
   3e424:	97fff07b 	bl	3a610 <apr_version_string@plt>
   3e428:	aa0003f4 	mov	x20, x0
   3e42c:	97fff021 	bl	3a4b0 <apu_version_string@plt>
   3e430:	aa0003f5 	mov	x21, x0
   3e434:	52800020 	mov	w0, #0x1                   	// #1
   3e438:	94002af2 	bl	49000 <ap_pcre_version_string>
   3e43c:	aa1503e3 	mov	x3, x21
   3e440:	aa0003e4 	mov	x4, x0
   3e444:	aa1403e2 	mov	x2, x20
   3e448:	b0000261 	adrp	x1, 8b000 <ap_unixd_mpm_set_signals+0x408>
   3e44c:	91072021 	add	x1, x1, #0x1c8
   3e450:	52800020 	mov	w0, #0x1                   	// #1
   3e454:	97fff397 	bl	3b2b0 <__printf_chk@plt>
   3e458:	52800000 	mov	w0, #0x0                   	// #0
   3e45c:	94002ae9 	bl	49000 <ap_pcre_version_string>
   3e460:	aa0003e4 	mov	x4, x0
   3e464:	b0000263 	adrp	x3, 8b000 <ap_unixd_mpm_set_signals+0x408>
   3e468:	b0000262 	adrp	x2, 8b000 <ap_unixd_mpm_set_signals+0x408>
   3e46c:	9107e063 	add	x3, x3, #0x1f8
   3e470:	91080042 	add	x2, x2, #0x200
   3e474:	b0000261 	adrp	x1, 8b000 <ap_unixd_mpm_set_signals+0x408>
   3e478:	52800020 	mov	w0, #0x1                   	// #1
   3e47c:	91082021 	add	x1, x1, #0x208
   3e480:	97fff38c 	bl	3b2b0 <__printf_chk@plt>
   3e484:	b0000261 	adrp	x1, 8b000 <ap_unixd_mpm_set_signals+0x408>
   3e488:	9108e021 	add	x1, x1, #0x238
   3e48c:	d2800802 	mov	x2, #0x40                  	// #64
   3e490:	52800020 	mov	w0, #0x1                   	// #1
   3e494:	97fff387 	bl	3b2b0 <__printf_chk@plt>
   3e498:	9400267c 	bl	47e88 <ap_show_mpm>
   3e49c:	aa0003e2 	mov	x2, x0
   3e4a0:	b0000261 	adrp	x1, 8b000 <ap_unixd_mpm_set_signals+0x408>
   3e4a4:	52800020 	mov	w0, #0x1                   	// #1
   3e4a8:	91096021 	add	x1, x1, #0x258
   3e4ac:	97fff381 	bl	3b2b0 <__printf_chk@plt>
   3e4b0:	aa1603e1 	mov	x1, x22
   3e4b4:	52800040 	mov	w0, #0x2                   	// #2
   3e4b8:	94002570 	bl	47a78 <ap_mpm_query>
   3e4bc:	34000900 	cbz	w0, 3e5dc <show_compile_settings+0x22c>
   3e4c0:	aa1603e1 	mov	x1, x22
   3e4c4:	52800060 	mov	w0, #0x3                   	// #3
   3e4c8:	9400256c 	bl	47a78 <ap_mpm_query>
   3e4cc:	34000a20 	cbz	w0, 3e610 <show_compile_settings+0x260>
   3e4d0:	b0000260 	adrp	x0, 8b000 <ap_unixd_mpm_set_signals+0x408>
   3e4d4:	910ca000 	add	x0, x0, #0x328
   3e4d8:	97fff60e 	bl	3bd10 <puts@plt>
   3e4dc:	b0000260 	adrp	x0, 8b000 <ap_unixd_mpm_set_signals+0x408>
   3e4e0:	910d2000 	add	x0, x0, #0x348
   3e4e4:	97fff60b 	bl	3bd10 <puts@plt>
   3e4e8:	b0000260 	adrp	x0, 8b000 <ap_unixd_mpm_set_signals+0x408>
   3e4ec:	910d8000 	add	x0, x0, #0x360
   3e4f0:	97fff608 	bl	3bd10 <puts@plt>
   3e4f4:	b0000261 	adrp	x1, 8b000 <ap_unixd_mpm_set_signals+0x408>
   3e4f8:	910de021 	add	x1, x1, #0x378
   3e4fc:	52800020 	mov	w0, #0x1                   	// #1
   3e500:	97fff36c 	bl	3b2b0 <__printf_chk@plt>
   3e504:	b0000260 	adrp	x0, 8b000 <ap_unixd_mpm_set_signals+0x408>
   3e508:	910ea000 	add	x0, x0, #0x3a8
   3e50c:	97fff601 	bl	3bd10 <puts@plt>
   3e510:	b0000260 	adrp	x0, 8b000 <ap_unixd_mpm_set_signals+0x408>
   3e514:	910ee000 	add	x0, x0, #0x3b8
   3e518:	97fff5fe 	bl	3bd10 <puts@plt>
   3e51c:	b0000260 	adrp	x0, 8b000 <ap_unixd_mpm_set_signals+0x408>
   3e520:	910f8000 	add	x0, x0, #0x3e0
   3e524:	97fff5fb 	bl	3bd10 <puts@plt>
   3e528:	b0000260 	adrp	x0, 8b000 <ap_unixd_mpm_set_signals+0x408>
   3e52c:	91100000 	add	x0, x0, #0x400
   3e530:	97fff5f8 	bl	3bd10 <puts@plt>
   3e534:	b0000260 	adrp	x0, 8b000 <ap_unixd_mpm_set_signals+0x408>
   3e538:	9110a000 	add	x0, x0, #0x428
   3e53c:	97fff5f5 	bl	3bd10 <puts@plt>
   3e540:	b0000260 	adrp	x0, 8b000 <ap_unixd_mpm_set_signals+0x408>
   3e544:	91110000 	add	x0, x0, #0x440
   3e548:	97fff5f2 	bl	3bd10 <puts@plt>
   3e54c:	b0000261 	adrp	x1, 8b000 <ap_unixd_mpm_set_signals+0x408>
   3e550:	91118021 	add	x1, x1, #0x460
   3e554:	d2802002 	mov	x2, #0x100                 	// #256
   3e558:	52800020 	mov	w0, #0x1                   	// #1
   3e55c:	97fff355 	bl	3b2b0 <__printf_chk@plt>
   3e560:	b0000260 	adrp	x0, 8b000 <ap_unixd_mpm_set_signals+0x408>
   3e564:	91120000 	add	x0, x0, #0x480
   3e568:	97fff5ea 	bl	3bd10 <puts@plt>
   3e56c:	b0000260 	adrp	x0, 8b000 <ap_unixd_mpm_set_signals+0x408>
   3e570:	9112a000 	add	x0, x0, #0x4a8
   3e574:	97fff5e7 	bl	3bd10 <puts@plt>
   3e578:	b0000260 	adrp	x0, 8b000 <ap_unixd_mpm_set_signals+0x408>
   3e57c:	91136000 	add	x0, x0, #0x4d8
   3e580:	97fff5e4 	bl	3bd10 <puts@plt>
   3e584:	b0000260 	adrp	x0, 8b000 <ap_unixd_mpm_set_signals+0x408>
   3e588:	91140000 	add	x0, x0, #0x500
   3e58c:	97fff5e1 	bl	3bd10 <puts@plt>
   3e590:	b0000260 	adrp	x0, 8b000 <ap_unixd_mpm_set_signals+0x408>
   3e594:	9114e000 	add	x0, x0, #0x538
   3e598:	97fff5de 	bl	3bd10 <puts@plt>
   3e59c:	b0000260 	adrp	x0, 8b000 <ap_unixd_mpm_set_signals+0x408>
   3e5a0:	91158000 	add	x0, x0, #0x560
   3e5a4:	97fff5db 	bl	3bd10 <puts@plt>
   3e5a8:	b0000260 	adrp	x0, 8b000 <ap_unixd_mpm_set_signals+0x408>
   3e5ac:	91164000 	add	x0, x0, #0x590
   3e5b0:	97fff5d8 	bl	3bd10 <puts@plt>
   3e5b4:	f9474273 	ldr	x19, [x19, #3712]
   3e5b8:	f9401fe0 	ldr	x0, [sp, #56]
   3e5bc:	f9400261 	ldr	x1, [x19]
   3e5c0:	eb010000 	subs	x0, x0, x1
   3e5c4:	d2800001 	mov	x1, #0x0                   	// #0
   3e5c8:	540005e1 	b.ne	3e684 <show_compile_settings+0x2d4>  // b.any
   3e5cc:	a94153f3 	ldp	x19, x20, [sp, #16]
   3e5d0:	a9425bf5 	ldp	x21, x22, [sp, #32]
   3e5d4:	a8c47bfd 	ldp	x29, x30, [sp], #64
   3e5d8:	d65f03c0 	ret
   3e5dc:	b0000261 	adrp	x1, 8b000 <ap_unixd_mpm_set_signals+0x408>
   3e5e0:	52800020 	mov	w0, #0x1                   	// #1
   3e5e4:	9109c021 	add	x1, x1, #0x270
   3e5e8:	97fff332 	bl	3b2b0 <__printf_chk@plt>
   3e5ec:	b94037e0 	ldr	w0, [sp, #52]
   3e5f0:	7100081f 	cmp	w0, #0x2
   3e5f4:	54000400 	b.eq	3e674 <show_compile_settings+0x2c4>  // b.none
   3e5f8:	7100041f 	cmp	w0, #0x1
   3e5fc:	54000240 	b.eq	3e644 <show_compile_settings+0x294>  // b.none
   3e600:	b0000260 	adrp	x0, 8b000 <ap_unixd_mpm_set_signals+0x408>
   3e604:	910b2000 	add	x0, x0, #0x2c8
   3e608:	97fff5c2 	bl	3bd10 <puts@plt>
   3e60c:	17ffffad 	b	3e4c0 <show_compile_settings+0x110>
   3e610:	b0000261 	adrp	x1, 8b000 <ap_unixd_mpm_set_signals+0x408>
   3e614:	52800020 	mov	w0, #0x1                   	// #1
   3e618:	910b4021 	add	x1, x1, #0x2d0
   3e61c:	97fff325 	bl	3b2b0 <__printf_chk@plt>
   3e620:	b94037e0 	ldr	w0, [sp, #52]
   3e624:	7100081f 	cmp	w0, #0x2
   3e628:	540001e0 	b.eq	3e664 <show_compile_settings+0x2b4>  // b.none
   3e62c:	7100041f 	cmp	w0, #0x1
   3e630:	54000120 	b.eq	3e654 <show_compile_settings+0x2a4>  // b.none
   3e634:	b0000260 	adrp	x0, 8b000 <ap_unixd_mpm_set_signals+0x408>
   3e638:	910b2000 	add	x0, x0, #0x2c8
   3e63c:	97fff5b5 	bl	3bd10 <puts@plt>
   3e640:	17ffffa4 	b	3e4d0 <show_compile_settings+0x120>
   3e644:	b0000260 	adrp	x0, 8b000 <ap_unixd_mpm_set_signals+0x408>
   3e648:	910aa000 	add	x0, x0, #0x2a8
   3e64c:	97fff5b1 	bl	3bd10 <puts@plt>
   3e650:	17ffff9c 	b	3e4c0 <show_compile_settings+0x110>
   3e654:	b0000260 	adrp	x0, 8b000 <ap_unixd_mpm_set_signals+0x408>
   3e658:	910c2000 	add	x0, x0, #0x308
   3e65c:	97fff5ad 	bl	3bd10 <puts@plt>
   3e660:	17ffff9c 	b	3e4d0 <show_compile_settings+0x120>
   3e664:	b0000260 	adrp	x0, 8b000 <ap_unixd_mpm_set_signals+0x408>
   3e668:	910ba000 	add	x0, x0, #0x2e8
   3e66c:	97fff5a9 	bl	3bd10 <puts@plt>
   3e670:	17ffff98 	b	3e4d0 <show_compile_settings+0x120>
   3e674:	b0000260 	adrp	x0, 8b000 <ap_unixd_mpm_set_signals+0x408>
   3e678:	910a2000 	add	x0, x0, #0x288
   3e67c:	97fff5a5 	bl	3bd10 <puts@plt>
   3e680:	17ffff90 	b	3e4c0 <show_compile_settings+0x110>
   3e684:	97fff483 	bl	3b890 <__stack_chk_fail@plt>

000000000003e688 <reset_process_pconf>:
   3e688:	a9be7bfd 	stp	x29, x30, [sp, #-32]!
   3e68c:	910003fd 	mov	x29, sp
   3e690:	f9000bf3 	str	x19, [sp, #16]
   3e694:	aa0003f3 	mov	x19, x0
   3e698:	f9400400 	ldr	x0, [x0, #8]
   3e69c:	b4000180 	cbz	x0, 3e6cc <reset_process_pconf+0x44>
   3e6a0:	97fff0c8 	bl	3a9c0 <apr_pool_clear@plt>
   3e6a4:	90000420 	adrp	x0, c2000 <apr_os_thread_put>
   3e6a8:	90000002 	adrp	x2, 3e000 <main+0x8b0>
   3e6ac:	d2800001 	mov	x1, #0x0                   	// #0
   3e6b0:	911c4042 	add	x2, x2, #0x710
   3e6b4:	f9469400 	ldr	x0, [x0, #3368]
   3e6b8:	f900001f 	str	xzr, [x0]
   3e6bc:	f9400660 	ldr	x0, [x19, #8]
   3e6c0:	f9400bf3 	ldr	x19, [sp, #16]
   3e6c4:	a8c27bfd 	ldp	x29, x30, [sp], #32
   3e6c8:	17fffbea 	b	3d670 <apr_pool_pre_cleanup_register@plt>
   3e6cc:	aa1303e0 	mov	x0, x19
   3e6d0:	d2800003 	mov	x3, #0x0                   	// #0
   3e6d4:	d2800002 	mov	x2, #0x0                   	// #0
   3e6d8:	f8408401 	ldr	x1, [x0], #8
   3e6dc:	97fff061 	bl	3a860 <apr_pool_create_ex@plt>
   3e6e0:	f9400660 	ldr	x0, [x19, #8]
   3e6e4:	b0000261 	adrp	x1, 8b000 <ap_unixd_mpm_set_signals+0x408>
   3e6e8:	91170021 	add	x1, x1, #0x5c0
   3e6ec:	97ffef79 	bl	3a4d0 <apr_pool_tag@plt>
   3e6f0:	f9400660 	ldr	x0, [x19, #8]
   3e6f4:	90000002 	adrp	x2, 3e000 <main+0x8b0>
   3e6f8:	f9400bf3 	ldr	x19, [sp, #16]
   3e6fc:	911c4042 	add	x2, x2, #0x710
   3e700:	a8c27bfd 	ldp	x29, x30, [sp], #32
   3e704:	d2800001 	mov	x1, #0x0                   	// #0
   3e708:	17fffbda 	b	3d670 <apr_pool_pre_cleanup_register@plt>
   3e70c:	d503201f 	nop

000000000003e710 <deregister_all_hooks>:
   3e710:	a9bf7bfd 	stp	x29, x30, [sp, #-16]!
   3e714:	910003fd 	mov	x29, sp
   3e718:	94007d02 	bl	5db20 <ap_clear_auth_internal>
   3e71c:	97fff2e1 	bl	3b2a0 <apr_hook_deregister_all@plt>
   3e720:	52800000 	mov	w0, #0x0                   	// #0
   3e724:	a8c17bfd 	ldp	x29, x30, [sp], #16
   3e728:	d65f03c0 	ret
   3e72c:	d503201f 	nop

000000000003e730 <destroy_and_exit_process.isra.0>:
   3e730:	a9be7bfd 	stp	x29, x30, [sp, #-32]!
   3e734:	910003fd 	mov	x29, sp
   3e738:	a90153f3 	stp	x19, x20, [sp, #16]
   3e73c:	2a0103f3 	mov	w19, w1
   3e740:	aa0003f4 	mov	x20, x0
   3e744:	d284e200 	mov	x0, #0x2710                	// #10000
   3e748:	97fff73e 	bl	3c440 <apr_sleep@plt>
   3e74c:	90000421 	adrp	x1, c2000 <apr_os_thread_put>
   3e750:	528000c2 	mov	w2, #0x6                   	// #6
   3e754:	f9400280 	ldr	x0, [x20]
   3e758:	f9468c21 	ldr	x1, [x1, #3352]
   3e75c:	b9000022 	str	w2, [x1]
   3e760:	97fff7dc 	bl	3c6d0 <apr_pool_destroy@plt>
   3e764:	97ffeecb 	bl	3a290 <apr_terminate@plt>
   3e768:	2a1303e0 	mov	w0, w19
   3e76c:	97ffee91 	bl	3a1b0 <exit@plt>

000000000003e770 <usage>:
   3e770:	d10103ff 	sub	sp, sp, #0x40
   3e774:	a9017bfd 	stp	x29, x30, [sp, #16]
   3e778:	910043fd 	add	x29, sp, #0x10
   3e77c:	a9035bf5 	stp	x21, x22, [sp, #48]
   3e780:	aa0003f6 	mov	x22, x0
   3e784:	f9400c00 	ldr	x0, [x0, #24]
   3e788:	a90253f3 	stp	x19, x20, [sp, #32]
   3e78c:	b0000273 	adrp	x19, 8b000 <ap_unixd_mpm_set_signals+0x408>
   3e790:	9117e273 	add	x19, x19, #0x5f8
   3e794:	f9400014 	ldr	x20, [x0]
   3e798:	aa1403e0 	mov	x0, x20
   3e79c:	97ffee61 	bl	3a120 <strlen@plt>
   3e7a0:	aa1403e7 	mov	x7, x20
   3e7a4:	aa0003f5 	mov	x21, x0
   3e7a8:	d2800005 	mov	x5, #0x0                   	// #0
   3e7ac:	aa1303e0 	mov	x0, x19
   3e7b0:	52800004 	mov	w4, #0x0                   	// #0
   3e7b4:	52800803 	mov	w3, #0x40                  	// #64
   3e7b8:	12800002 	mov	w2, #0xffffffff            	// #-1
   3e7bc:	52802fa1 	mov	w1, #0x17d                 	// #381
   3e7c0:	b0000266 	adrp	x6, 8b000 <ap_unixd_mpm_set_signals+0x408>
   3e7c4:	f0000274 	adrp	x20, 8d000 <nul+0x437>
   3e7c8:	911720c6 	add	x6, x6, #0x5c8
   3e7cc:	912ae294 	add	x20, x20, #0xab8
   3e7d0:	9400b46c 	bl	6b980 <ap_log_error_>
   3e7d4:	f90003f4 	str	x20, [sp]
   3e7d8:	2a1503e7 	mov	w7, w21
   3e7dc:	aa1303e0 	mov	x0, x19
   3e7e0:	d2800005 	mov	x5, #0x0                   	// #0
   3e7e4:	52800004 	mov	w4, #0x0                   	// #0
   3e7e8:	52800803 	mov	w3, #0x40                  	// #64
   3e7ec:	12800002 	mov	w2, #0xffffffff            	// #-1
   3e7f0:	52803001 	mov	w1, #0x180                 	// #384
   3e7f4:	b0000266 	adrp	x6, 8b000 <ap_unixd_mpm_set_signals+0x408>
   3e7f8:	911800c6 	add	x6, x6, #0x600
   3e7fc:	9400b461 	bl	6b980 <ap_log_error_>
   3e800:	f90003f4 	str	x20, [sp]
   3e804:	2a1503e7 	mov	w7, w21
   3e808:	aa1303e0 	mov	x0, x19
   3e80c:	d2800005 	mov	x5, #0x0                   	// #0
   3e810:	52800004 	mov	w4, #0x0                   	// #0
   3e814:	52800803 	mov	w3, #0x40                  	// #64
   3e818:	12800002 	mov	w2, #0xffffffff            	// #-1
   3e81c:	528031c1 	mov	w1, #0x18e                 	// #398
   3e820:	b0000266 	adrp	x6, 8b000 <ap_unixd_mpm_set_signals+0x408>
   3e824:	9118c0c6 	add	x6, x6, #0x630
   3e828:	9400b456 	bl	6b980 <ap_log_error_>
   3e82c:	f90003f4 	str	x20, [sp]
   3e830:	2a1503e7 	mov	w7, w21
   3e834:	aa1303e0 	mov	x0, x19
   3e838:	d2800005 	mov	x5, #0x0                   	// #0
   3e83c:	52800004 	mov	w4, #0x0                   	// #0
   3e840:	52800803 	mov	w3, #0x40                  	// #64
   3e844:	12800002 	mov	w2, #0xffffffff            	// #-1
   3e848:	52803241 	mov	w1, #0x192                 	// #402
   3e84c:	b0000266 	adrp	x6, 8b000 <ap_unixd_mpm_set_signals+0x408>
   3e850:	9119c0c6 	add	x6, x6, #0x670
   3e854:	9400b44b 	bl	6b980 <ap_log_error_>
   3e858:	aa1303e0 	mov	x0, x19
   3e85c:	d2800005 	mov	x5, #0x0                   	// #0
   3e860:	52800004 	mov	w4, #0x0                   	// #0
   3e864:	52800803 	mov	w3, #0x40                  	// #64
   3e868:	12800002 	mov	w2, #0xffffffff            	// #-1
   3e86c:	528032a1 	mov	w1, #0x195                 	// #405
   3e870:	b0000266 	adrp	x6, 8b000 <ap_unixd_mpm_set_signals+0x408>
   3e874:	911aa0c6 	add	x6, x6, #0x6a8
   3e878:	9400b442 	bl	6b980 <ap_log_error_>
   3e87c:	aa1303e0 	mov	x0, x19
   3e880:	d2800005 	mov	x5, #0x0                   	// #0
   3e884:	52800004 	mov	w4, #0x0                   	// #0
   3e888:	52800803 	mov	w3, #0x40                  	// #64
   3e88c:	12800002 	mov	w2, #0xffffffff            	// #-1
   3e890:	52803301 	mov	w1, #0x198                 	// #408
   3e894:	b0000266 	adrp	x6, 8b000 <ap_unixd_mpm_set_signals+0x408>
   3e898:	911ae0c6 	add	x6, x6, #0x6b8
   3e89c:	9400b439 	bl	6b980 <ap_log_error_>
   3e8a0:	aa1303e0 	mov	x0, x19
   3e8a4:	d2800005 	mov	x5, #0x0                   	// #0
   3e8a8:	52800004 	mov	w4, #0x0                   	// #0
   3e8ac:	52800803 	mov	w3, #0x40                  	// #64
   3e8b0:	12800002 	mov	w2, #0xffffffff            	// #-1
   3e8b4:	52803361 	mov	w1, #0x19b                 	// #411
   3e8b8:	b0000266 	adrp	x6, 8b000 <ap_unixd_mpm_set_signals+0x408>
   3e8bc:	911c20c6 	add	x6, x6, #0x708
   3e8c0:	9400b430 	bl	6b980 <ap_log_error_>
   3e8c4:	aa1303e0 	mov	x0, x19
   3e8c8:	d2800005 	mov	x5, #0x0                   	// #0
   3e8cc:	52800004 	mov	w4, #0x0                   	// #0
   3e8d0:	52800803 	mov	w3, #0x40                  	// #64
   3e8d4:	12800002 	mov	w2, #0xffffffff            	// #-1
   3e8d8:	528033c1 	mov	w1, #0x19e                 	// #414
   3e8dc:	b0000266 	adrp	x6, 8b000 <ap_unixd_mpm_set_signals+0x408>
   3e8e0:	911d20c6 	add	x6, x6, #0x748
   3e8e4:	9400b427 	bl	6b980 <ap_log_error_>
   3e8e8:	aa1303e0 	mov	x0, x19
   3e8ec:	d2800005 	mov	x5, #0x0                   	// #0
   3e8f0:	52800004 	mov	w4, #0x0                   	// #0
   3e8f4:	52800803 	mov	w3, #0x40                  	// #64
   3e8f8:	12800002 	mov	w2, #0xffffffff            	// #-1
   3e8fc:	52803401 	mov	w1, #0x1a0                 	// #416
   3e900:	b0000266 	adrp	x6, 8b000 <ap_unixd_mpm_set_signals+0x408>
   3e904:	911e20c6 	add	x6, x6, #0x788
   3e908:	9400b41e 	bl	6b980 <ap_log_error_>
   3e90c:	aa1303e0 	mov	x0, x19
   3e910:	d2800005 	mov	x5, #0x0                   	// #0
   3e914:	52800004 	mov	w4, #0x0                   	// #0
   3e918:	52800803 	mov	w3, #0x40                  	// #64
   3e91c:	12800002 	mov	w2, #0xffffffff            	// #-1
   3e920:	52803461 	mov	w1, #0x1a3                 	// #419
   3e924:	b0000266 	adrp	x6, 8b000 <ap_unixd_mpm_set_signals+0x408>
   3e928:	911f40c6 	add	x6, x6, #0x7d0
   3e92c:	9400b415 	bl	6b980 <ap_log_error_>
   3e930:	aa1303e0 	mov	x0, x19
   3e934:	d2800005 	mov	x5, #0x0                   	// #0
   3e938:	52800004 	mov	w4, #0x0                   	// #0
   3e93c:	52800803 	mov	w3, #0x40                  	// #64
   3e940:	12800002 	mov	w2, #0xffffffff            	// #-1
   3e944:	52803821 	mov	w1, #0x1c1                 	// #449
   3e948:	b0000266 	adrp	x6, 8b000 <ap_unixd_mpm_set_signals+0x408>
   3e94c:	912060c6 	add	x6, x6, #0x818
   3e950:	9400b40c 	bl	6b980 <ap_log_error_>
   3e954:	aa1303e0 	mov	x0, x19
   3e958:	d2800005 	mov	x5, #0x0                   	// #0
   3e95c:	52800004 	mov	w4, #0x0                   	// #0
   3e960:	52800803 	mov	w3, #0x40                  	// #64
   3e964:	12800002 	mov	w2, #0xffffffff            	// #-1
   3e968:	52803881 	mov	w1, #0x1c4                 	// #452
   3e96c:	b0000266 	adrp	x6, 8b000 <ap_unixd_mpm_set_signals+0x408>
   3e970:	912180c6 	add	x6, x6, #0x860
   3e974:	9400b403 	bl	6b980 <ap_log_error_>
   3e978:	aa1303e0 	mov	x0, x19
   3e97c:	d2800005 	mov	x5, #0x0                   	// #0
   3e980:	52800004 	mov	w4, #0x0                   	// #0
   3e984:	52800803 	mov	w3, #0x40                  	// #64
   3e988:	12800002 	mov	w2, #0xffffffff            	// #-1
   3e98c:	528038c1 	mov	w1, #0x1c6                 	// #454
   3e990:	b0000266 	adrp	x6, 8b000 <ap_unixd_mpm_set_signals+0x408>
   3e994:	912260c6 	add	x6, x6, #0x898
   3e998:	9400b3fa 	bl	6b980 <ap_log_error_>
   3e99c:	aa1303e0 	mov	x0, x19
   3e9a0:	d2800005 	mov	x5, #0x0                   	// #0
   3e9a4:	52800004 	mov	w4, #0x0                   	// #0
   3e9a8:	52800803 	mov	w3, #0x40                  	// #64
   3e9ac:	12800002 	mov	w2, #0xffffffff            	// #-1
   3e9b0:	52803901 	mov	w1, #0x1c8                 	// #456
   3e9b4:	b0000266 	adrp	x6, 8b000 <ap_unixd_mpm_set_signals+0x408>
   3e9b8:	912320c6 	add	x6, x6, #0x8c8
   3e9bc:	9400b3f1 	bl	6b980 <ap_log_error_>
   3e9c0:	aa1303e0 	mov	x0, x19
   3e9c4:	d2800005 	mov	x5, #0x0                   	// #0
   3e9c8:	52800004 	mov	w4, #0x0                   	// #0
   3e9cc:	52800803 	mov	w3, #0x40                  	// #64
   3e9d0:	12800002 	mov	w2, #0xffffffff            	// #-1
   3e9d4:	52803941 	mov	w1, #0x1ca                 	// #458
   3e9d8:	b0000266 	adrp	x6, 8b000 <ap_unixd_mpm_set_signals+0x408>
   3e9dc:	9123e0c6 	add	x6, x6, #0x8f8
   3e9e0:	9400b3e8 	bl	6b980 <ap_log_error_>
   3e9e4:	aa1303e0 	mov	x0, x19
   3e9e8:	d2800005 	mov	x5, #0x0                   	// #0
   3e9ec:	52800004 	mov	w4, #0x0                   	// #0
   3e9f0:	52800803 	mov	w3, #0x40                  	// #64
   3e9f4:	12800002 	mov	w2, #0xffffffff            	// #-1
   3e9f8:	528039a1 	mov	w1, #0x1cd                 	// #461
   3e9fc:	b0000266 	adrp	x6, 8b000 <ap_unixd_mpm_set_signals+0x408>
   3ea00:	912500c6 	add	x6, x6, #0x940
   3ea04:	9400b3df 	bl	6b980 <ap_log_error_>
   3ea08:	aa1303e0 	mov	x0, x19
   3ea0c:	d2800005 	mov	x5, #0x0                   	// #0
   3ea10:	52800004 	mov	w4, #0x0                   	// #0
   3ea14:	52800803 	mov	w3, #0x40                  	// #64
   3ea18:	12800002 	mov	w2, #0xffffffff            	// #-1
   3ea1c:	528039e1 	mov	w1, #0x1cf                 	// #463
   3ea20:	b0000266 	adrp	x6, 8b000 <ap_unixd_mpm_set_signals+0x408>
   3ea24:	9125c0c6 	add	x6, x6, #0x970
   3ea28:	9400b3d6 	bl	6b980 <ap_log_error_>
   3ea2c:	aa1303e0 	mov	x0, x19
   3ea30:	d2800005 	mov	x5, #0x0                   	// #0
   3ea34:	52800004 	mov	w4, #0x0                   	// #0
   3ea38:	52800803 	mov	w3, #0x40                  	// #64
   3ea3c:	12800002 	mov	w2, #0xffffffff            	// #-1
   3ea40:	52803a41 	mov	w1, #0x1d2                 	// #466
   3ea44:	b0000266 	adrp	x6, 8b000 <ap_unixd_mpm_set_signals+0x408>
   3ea48:	9126c0c6 	add	x6, x6, #0x9b0
   3ea4c:	9400b3cd 	bl	6b980 <ap_log_error_>
   3ea50:	aa1303e0 	mov	x0, x19
   3ea54:	d2800005 	mov	x5, #0x0                   	// #0
   3ea58:	52800004 	mov	w4, #0x0                   	// #0
   3ea5c:	52800803 	mov	w3, #0x40                  	// #64
   3ea60:	12800002 	mov	w2, #0xffffffff            	// #-1
   3ea64:	52803a81 	mov	w1, #0x1d4                 	// #468
   3ea68:	b0000266 	adrp	x6, 8b000 <ap_unixd_mpm_set_signals+0x408>
   3ea6c:	9127a0c6 	add	x6, x6, #0x9e8
   3ea70:	9400b3c4 	bl	6b980 <ap_log_error_>
   3ea74:	aa1303e0 	mov	x0, x19
   3ea78:	d2800005 	mov	x5, #0x0                   	// #0
   3ea7c:	52800004 	mov	w4, #0x0                   	// #0
   3ea80:	52800803 	mov	w3, #0x40                  	// #64
   3ea84:	12800002 	mov	w2, #0xffffffff            	// #-1
   3ea88:	52803ac1 	mov	w1, #0x1d6                 	// #470
   3ea8c:	b0000266 	adrp	x6, 8b000 <ap_unixd_mpm_set_signals+0x408>
   3ea90:	912860c6 	add	x6, x6, #0xa18
   3ea94:	9400b3bb 	bl	6b980 <ap_log_error_>
   3ea98:	aa1303e0 	mov	x0, x19
   3ea9c:	d2800005 	mov	x5, #0x0                   	// #0
   3eaa0:	52800004 	mov	w4, #0x0                   	// #0
   3eaa4:	52800803 	mov	w3, #0x40                  	// #64
   3eaa8:	12800002 	mov	w2, #0xffffffff            	// #-1
   3eaac:	52803b01 	mov	w1, #0x1d8                 	// #472
   3eab0:	b0000266 	adrp	x6, 8b000 <ap_unixd_mpm_set_signals+0x408>
   3eab4:	912980c6 	add	x6, x6, #0xa60
   3eab8:	9400b3b2 	bl	6b980 <ap_log_error_>
   3eabc:	aa1303e0 	mov	x0, x19
   3eac0:	d2800005 	mov	x5, #0x0                   	// #0
   3eac4:	52800004 	mov	w4, #0x0                   	// #0
   3eac8:	52800803 	mov	w3, #0x40                  	// #64
   3eacc:	12800002 	mov	w2, #0xffffffff            	// #-1
   3ead0:	52803b41 	mov	w1, #0x1da                 	// #474
   3ead4:	b0000266 	adrp	x6, 8b000 <ap_unixd_mpm_set_signals+0x408>
   3ead8:	912a40c6 	add	x6, x6, #0xa90
   3eadc:	9400b3a9 	bl	6b980 <ap_log_error_>
   3eae0:	aa1303e0 	mov	x0, x19
   3eae4:	d2800005 	mov	x5, #0x0                   	// #0
   3eae8:	52800004 	mov	w4, #0x0                   	// #0
   3eaec:	52800803 	mov	w3, #0x40                  	// #64
   3eaf0:	12800002 	mov	w2, #0xffffffff            	// #-1
   3eaf4:	52803b81 	mov	w1, #0x1dc                 	// #476
   3eaf8:	b0000266 	adrp	x6, 8b000 <ap_unixd_mpm_set_signals+0x408>
   3eafc:	912b20c6 	add	x6, x6, #0xac8
   3eb00:	9400b3a0 	bl	6b980 <ap_log_error_>
   3eb04:	aa1303e0 	mov	x0, x19
   3eb08:	d2800005 	mov	x5, #0x0                   	// #0
   3eb0c:	52800004 	mov	w4, #0x0                   	// #0
   3eb10:	52800803 	mov	w3, #0x40                  	// #64
   3eb14:	12800002 	mov	w2, #0xffffffff            	// #-1
   3eb18:	52803bc1 	mov	w1, #0x1de                 	// #478
   3eb1c:	b0000266 	adrp	x6, 8b000 <ap_unixd_mpm_set_signals+0x408>
   3eb20:	912c20c6 	add	x6, x6, #0xb08
   3eb24:	9400b397 	bl	6b980 <ap_log_error_>
   3eb28:	aa1303e0 	mov	x0, x19
   3eb2c:	d2800005 	mov	x5, #0x0                   	// #0
   3eb30:	52800004 	mov	w4, #0x0                   	// #0
   3eb34:	52800803 	mov	w3, #0x40                  	// #64
   3eb38:	12800002 	mov	w2, #0xffffffff            	// #-1
   3eb3c:	52803c01 	mov	w1, #0x1e0                 	// #480
   3eb40:	b0000266 	adrp	x6, 8b000 <ap_unixd_mpm_set_signals+0x408>
   3eb44:	912d20c6 	add	x6, x6, #0xb48
   3eb48:	9400b38e 	bl	6b980 <ap_log_error_>
   3eb4c:	b0000266 	adrp	x6, 8b000 <ap_unixd_mpm_set_signals+0x408>
   3eb50:	912e20c6 	add	x6, x6, #0xb88
   3eb54:	d2800005 	mov	x5, #0x0                   	// #0
   3eb58:	52800004 	mov	w4, #0x0                   	// #0
   3eb5c:	52800803 	mov	w3, #0x40                  	// #64
   3eb60:	12800002 	mov	w2, #0xffffffff            	// #-1
   3eb64:	aa1303e0 	mov	x0, x19
   3eb68:	52803c41 	mov	w1, #0x1e2                 	// #482
   3eb6c:	9400b385 	bl	6b980 <ap_log_error_>
   3eb70:	aa1603e0 	mov	x0, x22
   3eb74:	52800021 	mov	w1, #0x1                   	// #1
   3eb78:	97fffeee 	bl	3e730 <destroy_and_exit_process.isra.0>
   3eb7c:	d503201f 	nop

000000000003eb80 <ap_suck_in_APR>:
   3eb80:	90000420 	adrp	x0, c2000 <apr_os_thread_put>
   3eb84:	f947e000 	ldr	x0, [x0, #4032]
   3eb88:	f9400000 	ldr	x0, [x0]
   3eb8c:	d65f03c0 	ret

000000000003eb90 <vhost_check_config>:
   3eb90:	52800000 	mov	w0, #0x0                   	// #0
   3eb94:	d65f03c0 	ret

000000000003eb98 <dump_a_vhost>:
   3eb98:	d284100c 	mov	x12, #0x2080                	// #8320
   3eb9c:	cb2c63ff 	sub	sp, sp, x12
   3eba0:	a9007bfd 	stp	x29, x30, [sp]
   3eba4:	910003fd 	mov	x29, sp
   3eba8:	a90153f3 	stp	x19, x20, [sp, #16]
   3ebac:	aa0103f3 	mov	x19, x1
   3ebb0:	90000421 	adrp	x1, c2000 <apr_os_thread_put>
   3ebb4:	a9025bf5 	stp	x21, x22, [sp, #32]
   3ebb8:	aa0003f5 	mov	x21, x0
   3ebbc:	f9474022 	ldr	x2, [x1, #3712]
   3ebc0:	a9046bf9 	stp	x25, x26, [sp, #64]
   3ebc4:	f9400661 	ldr	x1, [x19, #8]
   3ebc8:	f9400040 	ldr	x0, [x2]
   3ebcc:	f9103fe0 	str	x0, [sp, #8312]
   3ebd0:	d2800000 	mov	x0, #0x0                   	// #0
   3ebd4:	f9400823 	ldr	x3, [x1, #16]
   3ebd8:	b9401c60 	ldr	w0, [x3, #28]
   3ebdc:	7100081f 	cmp	w0, #0x2
   3ebe0:	54000fc0 	b.eq	3edd8 <dump_a_vhost+0x240>  // b.none
